
convtest.elf:     file format elf32-littleriscv


Disassembly of section .text:

000100b4 <exit>:
   100b4:	ff010113          	addi	sp,sp,-16
   100b8:	00000593          	li	a1,0
   100bc:	00812423          	sw	s0,8(sp)
   100c0:	00112623          	sw	ra,12(sp)
   100c4:	00050413          	mv	s0,a0
   100c8:	681070ef          	jal	17f48 <__call_exitprocs>
   100cc:	f681a783          	lw	a5,-152(gp) # 1ca58 <__stdio_exit_handler>
   100d0:	00078463          	beqz	a5,100d8 <exit+0x24>
   100d4:	000780e7          	jalr	a5
   100d8:	00040513          	mv	a0,s0
   100dc:	7580a0ef          	jal	1a834 <_exit>

000100e0 <main>:
   100e0:	fa010113          	addi	sp,sp,-96
   100e4:	04912a23          	sw	s1,84(sp)
   100e8:	04112e23          	sw	ra,92(sp)
   100ec:	04812c23          	sw	s0,88(sp)
   100f0:	05212823          	sw	s2,80(sp)
   100f4:	05312623          	sw	s3,76(sp)
   100f8:	05412423          	sw	s4,72(sp)
   100fc:	05512223          	sw	s5,68(sp)
   10100:	05612023          	sw	s6,64(sp)
   10104:	03712e23          	sw	s7,60(sp)
   10108:	03812c23          	sw	s8,56(sp)
   1010c:	fa418493          	addi	s1,gp,-92 # 1ca94 <_ZZ4mainE10input_data>
   10110:	00000793          	li	a5,0
   10114:	00a00693          	li	a3,10
   10118:	02400713          	li	a4,36
   1011c:	00f48633          	add	a2,s1,a5
   10120:	00d60023          	sb	a3,0(a2)
   10124:	00178793          	addi	a5,a5,1
   10128:	fee79ae3          	bne	a5,a4,1011c <main+0x3c>
   1012c:	00012623          	sw	zero,12(sp)
   10130:	00012823          	sw	zero,16(sp)
   10134:	00012a23          	sw	zero,20(sp)
   10138:	00012c23          	sw	zero,24(sp)
   1013c:	00012e23          	sw	zero,28(sp)
   10140:	02012023          	sw	zero,32(sp)
   10144:	02012223          	sw	zero,36(sp)
   10148:	02012423          	sw	zero,40(sp)
   1014c:	02012623          	sw	zero,44(sp)
   10150:	00c10913          	addi	s2,sp,12
   10154:	00000b93          	li	s7,0
   10158:	f8000a93          	li	s5,-128
   1015c:	07f00a13          	li	s4,127
   10160:	00600993          	li	s3,6
   10164:	02400c13          	li	s8,36
   10168:	00000413          	li	s0,0
   1016c:	008487b3          	add	a5,s1,s0
   10170:	00078503          	lb	a0,0(a5)
   10174:	f5818583          	lb	a1,-168(gp) # 1ca48 <_ZZ4mainE11filter_data>
   10178:	3ad040ef          	jal	14d24 <__mulsi3>
   1017c:	00000613          	li	a2,0
   10180:	400005b7          	lui	a1,0x40000
   10184:	17c000ef          	jal	10300 <_ZN6tflite29MultiplyByQuantizedMultiplierElli>
   10188:	008907b3          	add	a5,s2,s0
   1018c:	00140413          	addi	s0,s0,1
   10190:	01555463          	bge	a0,s5,10198 <main+0xb8>
   10194:	f8000513          	li	a0,-128
   10198:	00aa5463          	bge	s4,a0,101a0 <main+0xc0>
   1019c:	07f00513          	li	a0,127
   101a0:	00a78023          	sb	a0,0(a5)
   101a4:	fd3414e3          	bne	s0,s3,1016c <main+0x8c>
   101a8:	006b8b93          	addi	s7,s7,6
   101ac:	00648493          	addi	s1,s1,6
   101b0:	00690913          	addi	s2,s2,6
   101b4:	fb8b9ae3          	bne	s7,s8,10168 <main+0x88>
   101b8:	05c12083          	lw	ra,92(sp)
   101bc:	05812403          	lw	s0,88(sp)
   101c0:	00c10503          	lb	a0,12(sp)
   101c4:	05412483          	lw	s1,84(sp)
   101c8:	05012903          	lw	s2,80(sp)
   101cc:	04c12983          	lw	s3,76(sp)
   101d0:	04812a03          	lw	s4,72(sp)
   101d4:	04412a83          	lw	s5,68(sp)
   101d8:	04012b03          	lw	s6,64(sp)
   101dc:	03c12b83          	lw	s7,60(sp)
   101e0:	03812c03          	lw	s8,56(sp)
   101e4:	06010113          	addi	sp,sp,96
   101e8:	00008067          	ret

000101ec <register_fini>:
   101ec:	00000793          	li	a5,0
   101f0:	00078863          	beqz	a5,10200 <register_fini+0x14>
   101f4:	0001a537          	lui	a0,0x1a
   101f8:	91850513          	addi	a0,a0,-1768 # 19918 <__libc_fini_array>
   101fc:	69d0706f          	j	18098 <atexit>
   10200:	00008067          	ret

00010204 <_start>:
   10204:	0000d197          	auipc	gp,0xd
   10208:	8ec18193          	addi	gp,gp,-1812 # 1caf0 <__global_pointer$>
   1020c:	00000513          	li	a0,0
   10210:	00050463          	beqz	a0,10218 <_start+0x14>
   10214:	01751073          	csrw	jvt,a0
   10218:	0000d517          	auipc	a0,0xd
   1021c:	84050513          	addi	a0,a0,-1984 # 1ca58 <__stdio_exit_handler>
   10220:	0000d617          	auipc	a2,0xd
   10224:	b8860613          	addi	a2,a2,-1144 # 1cda8 <__BSS_END__>
   10228:	40a60633          	sub	a2,a2,a0
   1022c:	00000593          	li	a1,0
   10230:	0a0000ef          	jal	102d0 <memset>
   10234:	00008517          	auipc	a0,0x8
   10238:	e6450513          	addi	a0,a0,-412 # 18098 <atexit>
   1023c:	00050863          	beqz	a0,1024c <_start+0x48>
   10240:	00009517          	auipc	a0,0x9
   10244:	6d850513          	addi	a0,a0,1752 # 19918 <__libc_fini_array>
   10248:	651070ef          	jal	18098 <atexit>
   1024c:	18d070ef          	jal	17bd8 <__libc_init_array>
   10250:	00012503          	lw	a0,0(sp)
   10254:	00410593          	addi	a1,sp,4
   10258:	00251613          	slli	a2,a0,0x2
   1025c:	00460613          	addi	a2,a2,4
   10260:	00b60633          	add	a2,a2,a1
   10264:	e7dff0ef          	jal	100e0 <main>
   10268:	e4dff06f          	j	100b4 <exit>

0001026c <__do_global_dtors_aux>:
   1026c:	ff010113          	addi	sp,sp,-16
   10270:	00812423          	sw	s0,8(sp)
   10274:	f881c783          	lbu	a5,-120(gp) # 1ca78 <completed.1>
   10278:	00112623          	sw	ra,12(sp)
   1027c:	02079263          	bnez	a5,102a0 <__do_global_dtors_aux+0x34>
   10280:	00000793          	li	a5,0
   10284:	00078a63          	beqz	a5,10298 <__do_global_dtors_aux+0x2c>
   10288:	0001b537          	lui	a0,0x1b
   1028c:	e7c50513          	addi	a0,a0,-388 # 1ae7c <__EH_FRAME_BEGIN__>
   10290:	00000097          	auipc	ra,0x0
   10294:	000000e7          	jalr	zero # 0 <exit-0x100b4>
   10298:	00100793          	li	a5,1
   1029c:	f8f18423          	sb	a5,-120(gp) # 1ca78 <completed.1>
   102a0:	00c12083          	lw	ra,12(sp)
   102a4:	00812403          	lw	s0,8(sp)
   102a8:	01010113          	addi	sp,sp,16
   102ac:	00008067          	ret

000102b0 <frame_dummy>:
   102b0:	00000793          	li	a5,0
   102b4:	00078c63          	beqz	a5,102cc <frame_dummy+0x1c>
   102b8:	0001b537          	lui	a0,0x1b
   102bc:	f8c18593          	addi	a1,gp,-116 # 1ca7c <object.0>
   102c0:	e7c50513          	addi	a0,a0,-388 # 1ae7c <__EH_FRAME_BEGIN__>
   102c4:	00000317          	auipc	t1,0x0
   102c8:	00000067          	jr	zero # 0 <exit-0x100b4>
   102cc:	00008067          	ret

000102d0 <memset>:
   102d0:	ff010113          	addi	sp,sp,-16
   102d4:	00812423          	sw	s0,8(sp)
   102d8:	00112623          	sw	ra,12(sp)
   102dc:	00050413          	mv	s0,a0
   102e0:	00060663          	beqz	a2,102ec <memset+0x1c>
   102e4:	0ff5f593          	zext.b	a1,a1
   102e8:	fe9ff0ef          	jal	102d0 <memset>
   102ec:	00c12083          	lw	ra,12(sp)
   102f0:	00040513          	mv	a0,s0
   102f4:	00812403          	lw	s0,8(sp)
   102f8:	01010113          	addi	sp,sp,16
   102fc:	00008067          	ret

00010300 <_ZN6tflite29MultiplyByQuantizedMultiplierElli>:
   10300:	fff64793          	not	a5,a2
   10304:	41f7d793          	srai	a5,a5,0x1f
   10308:	00f677b3          	and	a5,a2,a5
   1030c:	ff010113          	addi	sp,sp,-16
   10310:	00f51533          	sll	a0,a0,a5
   10314:	800007b7          	lui	a5,0x80000
   10318:	00812423          	sw	s0,8(sp)
   1031c:	00912223          	sw	s1,4(sp)
   10320:	00060413          	mv	s0,a2
   10324:	40b504b3          	sub	s1,a0,a1
   10328:	00f507b3          	add	a5,a0,a5
   1032c:	00058613          	mv	a2,a1
   10330:	0017b793          	seqz	a5,a5
   10334:	fff40713          	addi	a4,s0,-1
   10338:	0014b493          	seqz	s1,s1
   1033c:	01212023          	sw	s2,0(sp)
   10340:	00f4f4b3          	and	s1,s1,a5
   10344:	40800933          	neg	s2,s0
   10348:	41f75793          	srai	a5,a4,0x1f
   1034c:	41f55593          	srai	a1,a0,0x1f
   10350:	41f65693          	srai	a3,a2,0x1f
   10354:	00112623          	sw	ra,12(sp)
   10358:	00f97933          	and	s2,s2,a5
   1035c:	1ed040ef          	jal	14d48 <__muldi3>
   10360:	0805ce63          	bltz	a1,103fc <_ZN6tflite29MultiplyByQuantizedMultiplierElli+0xfc>
   10364:	40000737          	lui	a4,0x40000
   10368:	00000793          	li	a5,0
   1036c:	0a049063          	bnez	s1,1040c <_ZN6tflite29MultiplyByQuantizedMultiplierElli+0x10c>
   10370:	fe100693          	li	a3,-31
   10374:	0cd44463          	blt	s0,a3,1043c <_ZN6tflite29MultiplyByQuantizedMultiplierElli+0x13c>
   10378:	00a70733          	add	a4,a4,a0
   1037c:	00a73533          	sltu	a0,a4,a0
   10380:	00b787b3          	add	a5,a5,a1
   10384:	00f50533          	add	a0,a0,a5
   10388:	41f55793          	srai	a5,a0,0x1f
   1038c:	00179793          	slli	a5,a5,0x1
   10390:	0017d793          	srli	a5,a5,0x1
   10394:	00e78733          	add	a4,a5,a4
   10398:	00f737b3          	sltu	a5,a4,a5
   1039c:	00a787b3          	add	a5,a5,a0
   103a0:	01f75713          	srli	a4,a4,0x1f
   103a4:	00179793          	slli	a5,a5,0x1
   103a8:	00e787b3          	add	a5,a5,a4
   103ac:	fe090713          	addi	a4,s2,-32
   103b0:	00000513          	li	a0,0
   103b4:	02074e63          	bltz	a4,103f0 <_ZN6tflite29MultiplyByQuantizedMultiplierElli+0xf0>
   103b8:	fff50513          	addi	a0,a0,-1
   103bc:	40155693          	srai	a3,a0,0x1
   103c0:	01f7d713          	srli	a4,a5,0x1f
   103c4:	00a7f533          	and	a0,a5,a0
   103c8:	00d70733          	add	a4,a4,a3
   103cc:	00c12083          	lw	ra,12(sp)
   103d0:	00812403          	lw	s0,8(sp)
   103d4:	4127d7b3          	sra	a5,a5,s2
   103d8:	00a72533          	slt	a0,a4,a0
   103dc:	00412483          	lw	s1,4(sp)
   103e0:	00012903          	lw	s2,0(sp)
   103e4:	00a78533          	add	a0,a5,a0
   103e8:	01010113          	addi	sp,sp,16
   103ec:	00008067          	ret
   103f0:	00100513          	li	a0,1
   103f4:	01251533          	sll	a0,a0,s2
   103f8:	fc1ff06f          	j	103b8 <_ZN6tflite29MultiplyByQuantizedMultiplierElli+0xb8>
   103fc:	c0000737          	lui	a4,0xc0000
   10400:	00170713          	addi	a4,a4,1 # c0000001 <__BSS_END__+0xbffe3259>
   10404:	fff00793          	li	a5,-1
   10408:	f60484e3          	beqz	s1,10370 <_ZN6tflite29MultiplyByQuantizedMultiplierElli+0x70>
   1040c:	fe100793          	li	a5,-31
   10410:	02f44663          	blt	s0,a5,1043c <_ZN6tflite29MultiplyByQuantizedMultiplierElli+0x13c>
   10414:	fe090793          	addi	a5,s2,-32
   10418:	00000513          	li	a0,0
   1041c:	0007d663          	bgez	a5,10428 <_ZN6tflite29MultiplyByQuantizedMultiplierElli+0x128>
   10420:	00100513          	li	a0,1
   10424:	01251533          	sll	a0,a0,s2
   10428:	fff50513          	addi	a0,a0,-1
   1042c:	800007b7          	lui	a5,0x80000
   10430:	40155713          	srai	a4,a0,0x1
   10434:	fff78793          	addi	a5,a5,-1 # 7fffffff <__BSS_END__+0x7ffe3257>
   10438:	f95ff06f          	j	103cc <_ZN6tflite29MultiplyByQuantizedMultiplierElli+0xcc>
   1043c:	0001b6b7          	lui	a3,0x1b
   10440:	0001b637          	lui	a2,0x1b
   10444:	0001b537          	lui	a0,0x1b
   10448:	83868693          	addi	a3,a3,-1992 # 1a838 <_exit+0x4>
   1044c:	84860613          	addi	a2,a2,-1976 # 1a848 <_exit+0x14>
   10450:	8a450513          	addi	a0,a0,-1884 # 1a8a4 <_exit+0x70>
   10454:	16700593          	li	a1,359
   10458:	30d040ef          	jal	14f64 <__assert_func>

0001045c <_ZN6tflite29MultiplyByQuantizedMultiplierExli>:
   1045c:	ff010113          	addi	sp,sp,-16
   10460:	00112623          	sw	ra,12(sp)
   10464:	00812423          	sw	s0,8(sp)
   10468:	12064e63          	bltz	a2,105a4 <_ZN6tflite29MultiplyByQuantizedMultiplierExli+0x148>
   1046c:	01f68793          	addi	a5,a3,31
   10470:	02600713          	li	a4,38
   10474:	00068413          	mv	s0,a3
   10478:	10f76663          	bltu	a4,a5,10584 <_ZN6tflite29MultiplyByQuantizedMultiplierExli+0x128>
   1047c:	000087b7          	lui	a5,0x8
   10480:	00f586b3          	add	a3,a1,a5
   10484:	00010737          	lui	a4,0x10
   10488:	0ce6fe63          	bgeu	a3,a4,10564 <_ZN6tflite29MultiplyByQuantizedMultiplierExli+0x108>
   1048c:	7fff0737          	lui	a4,0x7fff0
   10490:	06e64063          	blt	a2,a4,104f0 <_ZN6tflite29MultiplyByQuantizedMultiplierExli+0x94>
   10494:	fff78613          	addi	a2,a5,-1 # 7fff <exit-0x80b5>
   10498:	00000693          	li	a3,0
   1049c:	0ad040ef          	jal	14d48 <__muldi3>
   104a0:	00e00713          	li	a4,14
   104a4:	40870733          	sub	a4,a4,s0
   104a8:	fe070793          	addi	a5,a4,-32 # 7ffeffe0 <__BSS_END__+0x7ffd3238>
   104ac:	0607c263          	bltz	a5,10510 <_ZN6tflite29MultiplyByQuantizedMultiplierExli+0xb4>
   104b0:	00100713          	li	a4,1
   104b4:	00f71733          	sll	a4,a4,a5
   104b8:	00f00693          	li	a3,15
   104bc:	00000793          	li	a5,0
   104c0:	00a78533          	add	a0,a5,a0
   104c4:	408686b3          	sub	a3,a3,s0
   104c8:	00f537b3          	sltu	a5,a0,a5
   104cc:	00b70733          	add	a4,a4,a1
   104d0:	fe068613          	addi	a2,a3,-32
   104d4:	00e787b3          	add	a5,a5,a4
   104d8:	06064263          	bltz	a2,1053c <_ZN6tflite29MultiplyByQuantizedMultiplierExli+0xe0>
   104dc:	00c12083          	lw	ra,12(sp)
   104e0:	00812403          	lw	s0,8(sp)
   104e4:	40c7d533          	sra	a0,a5,a2
   104e8:	01010113          	addi	sp,sp,16
   104ec:	00008067          	ret
   104f0:	00f606b3          	add	a3,a2,a5
   104f4:	4106d613          	srai	a2,a3,0x10
   104f8:	41f6d693          	srai	a3,a3,0x1f
   104fc:	04d040ef          	jal	14d48 <__muldi3>
   10500:	00e00713          	li	a4,14
   10504:	40870733          	sub	a4,a4,s0
   10508:	fe070793          	addi	a5,a4,-32
   1050c:	fa07d2e3          	bgez	a5,104b0 <_ZN6tflite29MultiplyByQuantizedMultiplierExli+0x54>
   10510:	00100793          	li	a5,1
   10514:	00e797b3          	sll	a5,a5,a4
   10518:	00f00693          	li	a3,15
   1051c:	00000713          	li	a4,0
   10520:	00a78533          	add	a0,a5,a0
   10524:	408686b3          	sub	a3,a3,s0
   10528:	00f537b3          	sltu	a5,a0,a5
   1052c:	00b70733          	add	a4,a4,a1
   10530:	fe068613          	addi	a2,a3,-32
   10534:	00e787b3          	add	a5,a5,a4
   10538:	fa0652e3          	bgez	a2,104dc <_ZN6tflite29MultiplyByQuantizedMultiplierExli+0x80>
   1053c:	00c12083          	lw	ra,12(sp)
   10540:	00812403          	lw	s0,8(sp)
   10544:	01f00713          	li	a4,31
   10548:	00179793          	slli	a5,a5,0x1
   1054c:	40d70733          	sub	a4,a4,a3
   10550:	00d55533          	srl	a0,a0,a3
   10554:	00e797b3          	sll	a5,a5,a4
   10558:	00a78533          	add	a0,a5,a0
   1055c:	01010113          	addi	sp,sp,16
   10560:	00008067          	ret
   10564:	0001b6b7          	lui	a3,0x1b
   10568:	0001b637          	lui	a2,0x1b
   1056c:	0001b537          	lui	a0,0x1b
   10570:	9a468693          	addi	a3,a3,-1628 # 1a9a4 <_exit+0x170>
   10574:	91060613          	addi	a2,a2,-1776 # 1a910 <_exit+0xdc>
   10578:	95850513          	addi	a0,a0,-1704 # 1a958 <_exit+0x124>
   1057c:	05a00593          	li	a1,90
   10580:	1e5040ef          	jal	14f64 <__assert_func>
   10584:	0001b6b7          	lui	a3,0x1b
   10588:	0001b637          	lui	a2,0x1b
   1058c:	0001b537          	lui	a0,0x1b
   10590:	98868693          	addi	a3,a3,-1656 # 1a988 <_exit+0x154>
   10594:	91060613          	addi	a2,a2,-1776 # 1a910 <_exit+0xdc>
   10598:	95850513          	addi	a0,a0,-1704 # 1a958 <_exit+0x124>
   1059c:	05900593          	li	a1,89
   105a0:	1c5040ef          	jal	14f64 <__assert_func>
   105a4:	0001b6b7          	lui	a3,0x1b
   105a8:	0001b637          	lui	a2,0x1b
   105ac:	0001b537          	lui	a0,0x1b
   105b0:	8f468693          	addi	a3,a3,-1804 # 1a8f4 <_exit+0xc0>
   105b4:	91060613          	addi	a2,a2,-1776 # 1a910 <_exit+0xdc>
   105b8:	95850513          	addi	a0,a0,-1704 # 1a958 <_exit+0x124>
   105bc:	05800593          	li	a1,88
   105c0:	1a5040ef          	jal	14f64 <__assert_func>

000105c4 <_ZN6tflite18QuantizeMultiplierEdPlPi.part.0>:
   105c4:	ff010113          	addi	sp,sp,-16
   105c8:	00912223          	sw	s1,4(sp)
   105cc:	00060493          	mv	s1,a2
   105d0:	00068613          	mv	a2,a3
   105d4:	00112623          	sw	ra,12(sp)
   105d8:	00812423          	sw	s0,8(sp)
   105dc:	00068413          	mv	s0,a3
   105e0:	188010ef          	jal	11768 <frexp>
   105e4:	ec81a603          	lw	a2,-312(gp) # 1c9b8 <__SDATA_BEGIN__>
   105e8:	ecc1a683          	lw	a3,-308(gp) # 1c9bc <__SDATA_BEGIN__+0x4>
   105ec:	1dd020ef          	jal	12fc8 <__muldf3>
   105f0:	2cc010ef          	jal	118bc <round>
   105f4:	18c030ef          	jal	13780 <__fixdfdi>
   105f8:	04b04c63          	bgtz	a1,10650 <_ZN6tflite18QuantizeMultiplierEdPlPi.part.0+0x8c>
   105fc:	04058663          	beqz	a1,10648 <_ZN6tflite18QuantizeMultiplierEdPlPi.part.0+0x84>
   10600:	80000737          	lui	a4,0x80000
   10604:	00042783          	lw	a5,0(s0)
   10608:	02e50663          	beq	a0,a4,10634 <_ZN6tflite18QuantizeMultiplierEdPlPi.part.0+0x70>
   1060c:	fe100713          	li	a4,-31
   10610:	00e7d663          	bge	a5,a4,1061c <_ZN6tflite18QuantizeMultiplierEdPlPi.part.0+0x58>
   10614:	00042023          	sw	zero,0(s0)
   10618:	00000513          	li	a0,0
   1061c:	00c12083          	lw	ra,12(sp)
   10620:	00812403          	lw	s0,8(sp)
   10624:	00a4a023          	sw	a0,0(s1)
   10628:	00412483          	lw	s1,4(sp)
   1062c:	01010113          	addi	sp,sp,16
   10630:	00008067          	ret
   10634:	fc059ce3          	bnez	a1,1060c <_ZN6tflite18QuantizeMultiplierEdPlPi.part.0+0x48>
   10638:	00178793          	addi	a5,a5,1
   1063c:	00f42023          	sw	a5,0(s0)
   10640:	40000537          	lui	a0,0x40000
   10644:	fc9ff06f          	j	1060c <_ZN6tflite18QuantizeMultiplierEdPlPi.part.0+0x48>
   10648:	800007b7          	lui	a5,0x80000
   1064c:	faa7fae3          	bgeu	a5,a0,10600 <_ZN6tflite18QuantizeMultiplierEdPlPi.part.0+0x3c>
   10650:	0fd040ef          	jal	14f4c <abort>

00010654 <_ZN6tflite18QuantizeMultiplierEdPlPi>:
   10654:	fe010113          	addi	sp,sp,-32
   10658:	00812c23          	sw	s0,24(sp)
   1065c:	00912a23          	sw	s1,20(sp)
   10660:	00060413          	mv	s0,a2
   10664:	00068493          	mv	s1,a3
   10668:	00000613          	li	a2,0
   1066c:	00000693          	li	a3,0
   10670:	01212823          	sw	s2,16(sp)
   10674:	01312623          	sw	s3,12(sp)
   10678:	00112e23          	sw	ra,28(sp)
   1067c:	00050913          	mv	s2,a0
   10680:	00058993          	mv	s3,a1
   10684:	710020ef          	jal	12d94 <__eqdf2>
   10688:	02051463          	bnez	a0,106b0 <_ZN6tflite18QuantizeMultiplierEdPlPi+0x5c>
   1068c:	00042023          	sw	zero,0(s0)
   10690:	01c12083          	lw	ra,28(sp)
   10694:	01812403          	lw	s0,24(sp)
   10698:	0004a023          	sw	zero,0(s1)
   1069c:	01012903          	lw	s2,16(sp)
   106a0:	01412483          	lw	s1,20(sp)
   106a4:	00c12983          	lw	s3,12(sp)
   106a8:	02010113          	addi	sp,sp,32
   106ac:	00008067          	ret
   106b0:	00040613          	mv	a2,s0
   106b4:	01812403          	lw	s0,24(sp)
   106b8:	01c12083          	lw	ra,28(sp)
   106bc:	00090513          	mv	a0,s2
   106c0:	00098593          	mv	a1,s3
   106c4:	01012903          	lw	s2,16(sp)
   106c8:	00c12983          	lw	s3,12(sp)
   106cc:	00048693          	mv	a3,s1
   106d0:	01412483          	lw	s1,20(sp)
   106d4:	02010113          	addi	sp,sp,32
   106d8:	eedff06f          	j	105c4 <_ZN6tflite18QuantizeMultiplierEdPlPi.part.0>

000106dc <_ZN6tflite32QuantizeMultiplierGreaterThanOneEdPlPi>:
   106dc:	fe010113          	addi	sp,sp,-32
   106e0:	00812c23          	sw	s0,24(sp)
   106e4:	00912a23          	sw	s1,20(sp)
   106e8:	00068413          	mv	s0,a3
   106ec:	00060493          	mv	s1,a2
   106f0:	ed41a683          	lw	a3,-300(gp) # 1c9c4 <__SDATA_BEGIN__+0xc>
   106f4:	ed01a603          	lw	a2,-304(gp) # 1c9c0 <__SDATA_BEGIN__+0x8>
   106f8:	01212823          	sw	s2,16(sp)
   106fc:	01312623          	sw	s3,12(sp)
   10700:	00112e23          	sw	ra,28(sp)
   10704:	00050913          	mv	s2,a0
   10708:	00058993          	mv	s3,a1
   1070c:	70c020ef          	jal	12e18 <__gedf2>
   10710:	02a05e63          	blez	a0,1074c <_ZN6tflite32QuantizeMultiplierGreaterThanOneEdPlPi+0x70>
   10714:	00090513          	mv	a0,s2
   10718:	00098593          	mv	a1,s3
   1071c:	00048613          	mv	a2,s1
   10720:	00040693          	mv	a3,s0
   10724:	ea1ff0ef          	jal	105c4 <_ZN6tflite18QuantizeMultiplierEdPlPi.part.0>
   10728:	00042783          	lw	a5,0(s0)
   1072c:	0207c063          	bltz	a5,1074c <_ZN6tflite32QuantizeMultiplierGreaterThanOneEdPlPi+0x70>
   10730:	01c12083          	lw	ra,28(sp)
   10734:	01812403          	lw	s0,24(sp)
   10738:	01412483          	lw	s1,20(sp)
   1073c:	01012903          	lw	s2,16(sp)
   10740:	00c12983          	lw	s3,12(sp)
   10744:	02010113          	addi	sp,sp,32
   10748:	00008067          	ret
   1074c:	001040ef          	jal	14f4c <abort>

00010750 <_ZN6tflite35QuantizeMultiplierSmallerThanOneExpEdPlPi>:
   10750:	fd010113          	addi	sp,sp,-48
   10754:	03212023          	sw	s2,32(sp)
   10758:	01312e23          	sw	s3,28(sp)
   1075c:	00060913          	mv	s2,a2
   10760:	00068993          	mv	s3,a3
   10764:	ed01a603          	lw	a2,-304(gp) # 1c9c0 <__SDATA_BEGIN__+0x8>
   10768:	ed41a683          	lw	a3,-300(gp) # 1c9c4 <__SDATA_BEGIN__+0xc>
   1076c:	02812423          	sw	s0,40(sp)
   10770:	02912223          	sw	s1,36(sp)
   10774:	02112623          	sw	ra,44(sp)
   10778:	00050413          	mv	s0,a0
   1077c:	00058493          	mv	s1,a1
   10780:	770020ef          	jal	12ef0 <__ledf2>
   10784:	04055c63          	bgez	a0,107dc <_ZN6tflite35QuantizeMultiplierSmallerThanOneExpEdPlPi+0x8c>
   10788:	00000613          	li	a2,0
   1078c:	00000693          	li	a3,0
   10790:	00040513          	mv	a0,s0
   10794:	00048593          	mv	a1,s1
   10798:	680020ef          	jal	12e18 <__gedf2>
   1079c:	04a05063          	blez	a0,107dc <_ZN6tflite35QuantizeMultiplierSmallerThanOneExpEdPlPi+0x8c>
   107a0:	00040513          	mv	a0,s0
   107a4:	00048593          	mv	a1,s1
   107a8:	00090613          	mv	a2,s2
   107ac:	00c10693          	addi	a3,sp,12
   107b0:	e15ff0ef          	jal	105c4 <_ZN6tflite18QuantizeMultiplierEdPlPi.part.0>
   107b4:	00c12783          	lw	a5,12(sp)
   107b8:	02f04263          	bgtz	a5,107dc <_ZN6tflite35QuantizeMultiplierSmallerThanOneExpEdPlPi+0x8c>
   107bc:	02c12083          	lw	ra,44(sp)
   107c0:	02812403          	lw	s0,40(sp)
   107c4:	00f9a023          	sw	a5,0(s3)
   107c8:	02412483          	lw	s1,36(sp)
   107cc:	02012903          	lw	s2,32(sp)
   107d0:	01c12983          	lw	s3,28(sp)
   107d4:	03010113          	addi	sp,sp,48
   107d8:	00008067          	ret
   107dc:	770040ef          	jal	14f4c <abort>

000107e0 <_ZN6tflite12IntegerFrExpEdPi>:
   107e0:	800007b7          	lui	a5,0x80000
   107e4:	fff78793          	addi	a5,a5,-1 # 7fffffff <__BSS_END__+0x7ffe3257>
   107e8:	00b7f733          	and	a4,a5,a1
   107ec:	00a76733          	or	a4,a4,a0
   107f0:	00058813          	mv	a6,a1
   107f4:	08070a63          	beqz	a4,10888 <_ZN6tflite12IntegerFrExpEdPi+0xa8>
   107f8:	0145d693          	srli	a3,a1,0x14
   107fc:	7ff6f693          	andi	a3,a3,2047
   10800:	7ff00713          	li	a4,2047
   10804:	04e68a63          	beq	a3,a4,10858 <_ZN6tflite12IntegerFrExpEdPi+0x78>
   10808:	00a59593          	slli	a1,a1,0xa
   1080c:	01655713          	srli	a4,a0,0x16
   10810:	400007b7          	lui	a5,0x40000
   10814:	00a51513          	slli	a0,a0,0xa
   10818:	00e58733          	add	a4,a1,a4
   1081c:	fff78893          	addi	a7,a5,-1 # 3fffffff <__BSS_END__+0x3ffe3257>
   10820:	00a55513          	srli	a0,a0,0xa
   10824:	002005b7          	lui	a1,0x200
   10828:	c0268693          	addi	a3,a3,-1022
   1082c:	01177733          	and	a4,a4,a7
   10830:	06a5e663          	bltu	a1,a0,1089c <_ZN6tflite12IntegerFrExpEdPi+0xbc>
   10834:	00f70533          	add	a0,a4,a5
   10838:	00e535b3          	sltu	a1,a0,a4
   1083c:	00085a63          	bgez	a6,10850 <_ZN6tflite12IntegerFrExpEdPi+0x70>
   10840:	00a037b3          	snez	a5,a0
   10844:	40b005b3          	neg	a1,a1
   10848:	40f585b3          	sub	a1,a1,a5
   1084c:	40a00533          	neg	a0,a0
   10850:	00d62023          	sw	a3,0(a2)
   10854:	00008067          	ret
   10858:	ffc00737          	lui	a4,0xffc00
   1085c:	00c59693          	slli	a3,a1,0xc
   10860:	00a77733          	and	a4,a4,a0
   10864:	00c6d693          	srli	a3,a3,0xc
   10868:	00d76733          	or	a4,a4,a3
   1086c:	04071263          	bnez	a4,108b0 <_ZN6tflite12IntegerFrExpEdPi+0xd0>
   10870:	41f5d513          	srai	a0,a1,0x1f
   10874:	00078693          	mv	a3,a5
   10878:	00f545b3          	xor	a1,a0,a5
   1087c:	00d62023          	sw	a3,0(a2)
   10880:	fff54513          	not	a0,a0
   10884:	00008067          	ret
   10888:	00000693          	li	a3,0
   1088c:	00000513          	li	a0,0
   10890:	00000593          	li	a1,0
   10894:	00d62023          	sw	a3,0(a2)
   10898:	00008067          	ret
   1089c:	40000537          	lui	a0,0x40000
   108a0:	00150513          	addi	a0,a0,1 # 40000001 <__BSS_END__+0x3ffe3259>
   108a4:	00a70533          	add	a0,a4,a0
   108a8:	00e535b3          	sltu	a1,a0,a4
   108ac:	f91ff06f          	j	1083c <_ZN6tflite12IntegerFrExpEdPi+0x5c>
   108b0:	00078693          	mv	a3,a5
   108b4:	00000513          	li	a0,0
   108b8:	00000593          	li	a1,0
   108bc:	f95ff06f          	j	10850 <_ZN6tflite12IntegerFrExpEdPi+0x70>

000108c0 <_ZN6tflite26DoubleFromFractionAndShiftExi>:
   108c0:	800007b7          	lui	a5,0x80000
   108c4:	fff78793          	addi	a5,a5,-1 # 7fffffff <__BSS_END__+0x7ffe3257>
   108c8:	10f60463          	beq	a2,a5,109d0 <_ZN6tflite26DoubleFromFractionAndShiftExi+0x110>
   108cc:	00b566b3          	or	a3,a0,a1
   108d0:	00000713          	li	a4,0
   108d4:	00000793          	li	a5,0
   108d8:	0a068c63          	beqz	a3,10990 <_ZN6tflite26DoubleFromFractionAndShiftExi+0xd0>
   108dc:	41f5d713          	srai	a4,a1,0x1f
   108e0:	00a74533          	xor	a0,a4,a0
   108e4:	40e506b3          	sub	a3,a0,a4
   108e8:	00b747b3          	xor	a5,a4,a1
   108ec:	00d53533          	sltu	a0,a0,a3
   108f0:	40e787b3          	sub	a5,a5,a4
   108f4:	40a787b3          	sub	a5,a5,a0
   108f8:	fff60613          	addi	a2,a2,-1
   108fc:	00068513          	mv	a0,a3
   10900:	41f65713          	srai	a4,a2,0x1f
   10904:	0af04263          	bgtz	a5,109a8 <_ZN6tflite26DoubleFromFractionAndShiftExi+0xe8>
   10908:	12078863          	beqz	a5,10a38 <_ZN6tflite26DoubleFromFractionAndShiftExi+0x178>
   1090c:	01f55693          	srli	a3,a0,0x1f
   10910:	00179793          	slli	a5,a5,0x1
   10914:	00f687b3          	add	a5,a3,a5
   10918:	00163693          	seqz	a3,a2
   1091c:	00151513          	slli	a0,a0,0x1
   10920:	40d70733          	sub	a4,a4,a3
   10924:	fff60613          	addi	a2,a2,-1
   10928:	00f04863          	bgtz	a5,10938 <_ZN6tflite26DoubleFromFractionAndShiftExi+0x78>
   1092c:	fe0790e3          	bnez	a5,1090c <_ZN6tflite26DoubleFromFractionAndShiftExi+0x4c>
   10930:	400006b7          	lui	a3,0x40000
   10934:	fcd56ce3          	bltu	a0,a3,1090c <_ZN6tflite26DoubleFromFractionAndShiftExi+0x4c>
   10938:	0ce05e63          	blez	a4,10a14 <_ZN6tflite26DoubleFromFractionAndShiftExi+0x154>
   1093c:	3ff00613          	li	a2,1023
   10940:	00000713          	li	a4,0
   10944:	fff00693          	li	a3,-1
   10948:	0ad74863          	blt	a4,a3,109f8 <_ZN6tflite26DoubleFromFractionAndShiftExi+0x138>
   1094c:	0ad70263          	beq	a4,a3,109f0 <_ZN6tflite26DoubleFromFractionAndShiftExi+0x130>
   10950:	c0000737          	lui	a4,0xc0000
   10954:	00e50733          	add	a4,a0,a4
   10958:	fff78793          	addi	a5,a5,-1
   1095c:	00a73533          	sltu	a0,a4,a0
   10960:	00f50533          	add	a0,a0,a5
   10964:	01651513          	slli	a0,a0,0x16
   10968:	00a75793          	srli	a5,a4,0xa
   1096c:	00a78533          	add	a0,a5,a0
   10970:	800007b7          	lui	a5,0x80000
   10974:	00f5f5b3          	and	a1,a1,a5
   10978:	3ff60613          	addi	a2,a2,1023
   1097c:	00b56533          	or	a0,a0,a1
   10980:	01461613          	slli	a2,a2,0x14
   10984:	00c567b3          	or	a5,a0,a2
   10988:	01671513          	slli	a0,a4,0x16
   1098c:	00050713          	mv	a4,a0
   10990:	00070513          	mv	a0,a4
   10994:	00078593          	mv	a1,a5
   10998:	00008067          	ret
   1099c:	800006b7          	lui	a3,0x80000
   109a0:	f8079ce3          	bnez	a5,10938 <_ZN6tflite26DoubleFromFractionAndShiftExi+0x78>
   109a4:	f8a6fae3          	bgeu	a3,a0,10938 <_ZN6tflite26DoubleFromFractionAndShiftExi+0x78>
   109a8:	00160693          	addi	a3,a2,1
   109ac:	01f79813          	slli	a6,a5,0x1f
   109b0:	00c6b633          	sltu	a2,a3,a2
   109b4:	00155513          	srli	a0,a0,0x1
   109b8:	4017d793          	srai	a5,a5,0x1
   109bc:	00e60733          	add	a4,a2,a4
   109c0:	00a80533          	add	a0,a6,a0
   109c4:	00068613          	mv	a2,a3
   109c8:	fef040e3          	bgtz	a5,109a8 <_ZN6tflite26DoubleFromFractionAndShiftExi+0xe8>
   109cc:	fd1ff06f          	j	1099c <_ZN6tflite26DoubleFromFractionAndShiftExi+0xdc>
   109d0:	00b567b3          	or	a5,a0,a1
   109d4:	02078663          	beqz	a5,10a00 <_ZN6tflite26DoubleFromFractionAndShiftExi+0x140>
   109d8:	04b05663          	blez	a1,10a24 <_ZN6tflite26DoubleFromFractionAndShiftExi+0x164>
   109dc:	ee01a703          	lw	a4,-288(gp) # 1c9d0 <__SDATA_BEGIN__+0x18>
   109e0:	ee41a783          	lw	a5,-284(gp) # 1c9d4 <__SDATA_BEGIN__+0x1c>
   109e4:	00070513          	mv	a0,a4
   109e8:	00078593          	mv	a1,a5
   109ec:	00008067          	ret
   109f0:	c0100713          	li	a4,-1023
   109f4:	f4e67ee3          	bgeu	a2,a4,10950 <_ZN6tflite26DoubleFromFractionAndShiftExi+0x90>
   109f8:	c0100613          	li	a2,-1023
   109fc:	f55ff06f          	j	10950 <_ZN6tflite26DoubleFromFractionAndShiftExi+0x90>
   10a00:	ed81a703          	lw	a4,-296(gp) # 1c9c8 <__SDATA_BEGIN__+0x10>
   10a04:	edc1a783          	lw	a5,-292(gp) # 1c9cc <__SDATA_BEGIN__+0x14>
   10a08:	00070513          	mv	a0,a4
   10a0c:	00078593          	mv	a1,a5
   10a10:	00008067          	ret
   10a14:	f20718e3          	bnez	a4,10944 <_ZN6tflite26DoubleFromFractionAndShiftExi+0x84>
   10a18:	3ff00693          	li	a3,1023
   10a1c:	f2c6f4e3          	bgeu	a3,a2,10944 <_ZN6tflite26DoubleFromFractionAndShiftExi+0x84>
   10a20:	f1dff06f          	j	1093c <_ZN6tflite26DoubleFromFractionAndShiftExi+0x7c>
   10a24:	00059463          	bnez	a1,10a2c <_ZN6tflite26DoubleFromFractionAndShiftExi+0x16c>
   10a28:	fa051ae3          	bnez	a0,109dc <_ZN6tflite26DoubleFromFractionAndShiftExi+0x11c>
   10a2c:	ee81a703          	lw	a4,-280(gp) # 1c9d8 <__SDATA_BEGIN__+0x20>
   10a30:	eec1a783          	lw	a5,-276(gp) # 1c9dc <__SDATA_BEGIN__+0x24>
   10a34:	f5dff06f          	j	10990 <_ZN6tflite26DoubleFromFractionAndShiftExi+0xd0>
   10a38:	40000837          	lui	a6,0x40000
   10a3c:	ed06e8e3          	bltu	a3,a6,1090c <_ZN6tflite26DoubleFromFractionAndShiftExi+0x4c>
   10a40:	80000837          	lui	a6,0x80000
   10a44:	f6d862e3          	bltu	a6,a3,109a8 <_ZN6tflite26DoubleFromFractionAndShiftExi+0xe8>
   10a48:	ef1ff06f          	j	10938 <_ZN6tflite26DoubleFromFractionAndShiftExi+0x78>

00010a4c <_ZN6tflite21IntegerDoubleMultiplyEdd>:
   10a4c:	80000737          	lui	a4,0x80000
   10a50:	fff70713          	addi	a4,a4,-1 # 7fffffff <__BSS_END__+0x7ffe3257>
   10a54:	00b777b3          	and	a5,a4,a1
   10a58:	00a7e7b3          	or	a5,a5,a0
   10a5c:	00d77e33          	and	t3,a4,a3
   10a60:	00068313          	mv	t1,a3
   10a64:	10078e63          	beqz	a5,10b80 <_ZN6tflite21IntegerDoubleMultiplyEdd+0x134>
   10a68:	0145d793          	srli	a5,a1,0x14
   10a6c:	7ff7f793          	andi	a5,a5,2047
   10a70:	7ff00813          	li	a6,2047
   10a74:	0d078e63          	beq	a5,a6,10b50 <_ZN6tflite21IntegerDoubleMultiplyEdd+0x104>
   10a78:	00a59713          	slli	a4,a1,0xa
   10a7c:	01655893          	srli	a7,a0,0x16
   10a80:	00a51813          	slli	a6,a0,0xa
   10a84:	40000537          	lui	a0,0x40000
   10a88:	011708b3          	add	a7,a4,a7
   10a8c:	00a85813          	srli	a6,a6,0xa
   10a90:	fff50713          	addi	a4,a0,-1 # 3fffffff <__BSS_END__+0x3ffe3257>
   10a94:	00200eb7          	lui	t4,0x200
   10a98:	00e8f8b3          	and	a7,a7,a4
   10a9c:	c0278713          	addi	a4,a5,-1022 # 7ffffc02 <__BSS_END__+0x7ffe2e5a>
   10aa0:	110ee863          	bltu	t4,a6,10bb0 <_ZN6tflite21IntegerDoubleMultiplyEdd+0x164>
   10aa4:	00a88833          	add	a6,a7,a0
   10aa8:	011838b3          	sltu	a7,a6,a7
   10aac:	00ce6e33          	or	t3,t3,a2
   10ab0:	1005cc63          	bltz	a1,10bc8 <_ZN6tflite21IntegerDoubleMultiplyEdd+0x17c>
   10ab4:	120e0663          	beqz	t3,10be0 <_ZN6tflite21IntegerDoubleMultiplyEdd+0x194>
   10ab8:	0146d793          	srli	a5,a3,0x14
   10abc:	7ff7f793          	andi	a5,a5,2047
   10ac0:	7ff00593          	li	a1,2047
   10ac4:	0eb78063          	beq	a5,a1,10ba4 <_ZN6tflite21IntegerDoubleMultiplyEdd+0x158>
   10ac8:	00a69513          	slli	a0,a3,0xa
   10acc:	01665593          	srli	a1,a2,0x16
   10ad0:	00b505b3          	add	a1,a0,a1
   10ad4:	fe010113          	addi	sp,sp,-32
   10ad8:	00a61613          	slli	a2,a2,0xa
   10adc:	40000537          	lui	a0,0x40000
   10ae0:	fff50e13          	addi	t3,a0,-1 # 3fffffff <__BSS_END__+0x3ffe3257>
   10ae4:	00112e23          	sw	ra,28(sp)
   10ae8:	00a65613          	srli	a2,a2,0xa
   10aec:	002006b7          	lui	a3,0x200
   10af0:	c0278793          	addi	a5,a5,-1022
   10af4:	01c5f5b3          	and	a1,a1,t3
   10af8:	00c6f663          	bgeu	a3,a2,10b04 <_ZN6tflite21IntegerDoubleMultiplyEdd+0xb8>
   10afc:	40000537          	lui	a0,0x40000
   10b00:	00150513          	addi	a0,a0,1 # 40000001 <__BSS_END__+0x3ffe3259>
   10b04:	00a58533          	add	a0,a1,a0
   10b08:	800006b7          	lui	a3,0x80000
   10b0c:	00b535b3          	sltu	a1,a0,a1
   10b10:	fff68693          	addi	a3,a3,-1 # 7fffffff <__BSS_END__+0x7ffe3257>
   10b14:	10034263          	bltz	t1,10c18 <_ZN6tflite21IntegerDoubleMultiplyEdd+0x1cc>
   10b18:	0cd70e63          	beq	a4,a3,10bf4 <_ZN6tflite21IntegerDoubleMultiplyEdd+0x1a8>
   10b1c:	00e787b3          	add	a5,a5,a4
   10b20:	00080613          	mv	a2,a6
   10b24:	00088693          	mv	a3,a7
   10b28:	00178793          	addi	a5,a5,1
   10b2c:	00f12623          	sw	a5,12(sp)
   10b30:	218040ef          	jal	14d48 <__muldi3>
   10b34:	00c12783          	lw	a5,12(sp)
   10b38:	01c12083          	lw	ra,28(sp)
   10b3c:	00058513          	mv	a0,a1
   10b40:	41f5d593          	srai	a1,a1,0x1f
   10b44:	00078613          	mv	a2,a5
   10b48:	02010113          	addi	sp,sp,32
   10b4c:	d75ff06f          	j	108c0 <_ZN6tflite26DoubleFromFractionAndShiftExi>
   10b50:	ffc007b7          	lui	a5,0xffc00
   10b54:	00c59813          	slli	a6,a1,0xc
   10b58:	00a7f7b3          	and	a5,a5,a0
   10b5c:	00c85813          	srli	a6,a6,0xc
   10b60:	0107e7b3          	or	a5,a5,a6
   10b64:	00ce6e33          	or	t3,t3,a2
   10b68:	0a079063          	bnez	a5,10c08 <_ZN6tflite21IntegerDoubleMultiplyEdd+0x1bc>
   10b6c:	020e0c63          	beqz	t3,10ba4 <_ZN6tflite21IntegerDoubleMultiplyEdd+0x158>
   10b70:	41f5d813          	srai	a6,a1,0x1f
   10b74:	00e848b3          	xor	a7,a6,a4
   10b78:	fff84813          	not	a6,a6
   10b7c:	f3dff06f          	j	10ab8 <_ZN6tflite21IntegerDoubleMultiplyEdd+0x6c>
   10b80:	00ce6e33          	or	t3,t3,a2
   10b84:	0a0e0c63          	beqz	t3,10c3c <_ZN6tflite21IntegerDoubleMultiplyEdd+0x1f0>
   10b88:	0146d793          	srli	a5,a3,0x14
   10b8c:	7ff7f793          	andi	a5,a5,2047
   10b90:	7ff00593          	li	a1,2047
   10b94:	00000713          	li	a4,0
   10b98:	00000813          	li	a6,0
   10b9c:	00000893          	li	a7,0
   10ba0:	f2b794e3          	bne	a5,a1,10ac8 <_ZN6tflite21IntegerDoubleMultiplyEdd+0x7c>
   10ba4:	ed81a503          	lw	a0,-296(gp) # 1c9c8 <__SDATA_BEGIN__+0x10>
   10ba8:	edc1a583          	lw	a1,-292(gp) # 1c9cc <__SDATA_BEGIN__+0x14>
   10bac:	00008067          	ret
   10bb0:	40000837          	lui	a6,0x40000
   10bb4:	00180813          	addi	a6,a6,1 # 40000001 <__BSS_END__+0x3ffe3259>
   10bb8:	01088833          	add	a6,a7,a6
   10bbc:	011838b3          	sltu	a7,a6,a7
   10bc0:	00ce6e33          	or	t3,t3,a2
   10bc4:	ee05d8e3          	bgez	a1,10ab4 <_ZN6tflite21IntegerDoubleMultiplyEdd+0x68>
   10bc8:	000e0c63          	beqz	t3,10be0 <_ZN6tflite21IntegerDoubleMultiplyEdd+0x194>
   10bcc:	010037b3          	snez	a5,a6
   10bd0:	411008b3          	neg	a7,a7
   10bd4:	40f888b3          	sub	a7,a7,a5
   10bd8:	41000833          	neg	a6,a6
   10bdc:	eddff06f          	j	10ab8 <_ZN6tflite21IntegerDoubleMultiplyEdd+0x6c>
   10be0:	c0378793          	addi	a5,a5,-1021 # ffbffc03 <__BSS_END__+0xffbe2e5b>
   10be4:	00000513          	li	a0,0
   10be8:	00000593          	li	a1,0
   10bec:	00078613          	mv	a2,a5
   10bf0:	cd1ff06f          	j	108c0 <_ZN6tflite26DoubleFromFractionAndShiftExi>
   10bf4:	01c12083          	lw	ra,28(sp)
   10bf8:	ed81a503          	lw	a0,-296(gp) # 1c9c8 <__SDATA_BEGIN__+0x10>
   10bfc:	edc1a583          	lw	a1,-292(gp) # 1c9cc <__SDATA_BEGIN__+0x14>
   10c00:	02010113          	addi	sp,sp,32
   10c04:	00008067          	ret
   10c08:	f80e0ee3          	beqz	t3,10ba4 <_ZN6tflite21IntegerDoubleMultiplyEdd+0x158>
   10c0c:	00000813          	li	a6,0
   10c10:	00000893          	li	a7,0
   10c14:	ea5ff06f          	j	10ab8 <_ZN6tflite21IntegerDoubleMultiplyEdd+0x6c>
   10c18:	fcd70ee3          	beq	a4,a3,10bf4 <_ZN6tflite21IntegerDoubleMultiplyEdd+0x1a8>
   10c1c:	00a03333          	snez	t1,a0
   10c20:	40b005b3          	neg	a1,a1
   10c24:	00e787b3          	add	a5,a5,a4
   10c28:	00080613          	mv	a2,a6
   10c2c:	00088693          	mv	a3,a7
   10c30:	406585b3          	sub	a1,a1,t1
   10c34:	40a00533          	neg	a0,a0
   10c38:	ef1ff06f          	j	10b28 <_ZN6tflite21IntegerDoubleMultiplyEdd+0xdc>
   10c3c:	00100793          	li	a5,1
   10c40:	00000513          	li	a0,0
   10c44:	00000593          	li	a1,0
   10c48:	00078613          	mv	a2,a5
   10c4c:	c75ff06f          	j	108c0 <_ZN6tflite26DoubleFromFractionAndShiftExi>

00010c50 <_ZN6tflite20IntegerDoubleCompareEdd>:
   10c50:	800007b7          	lui	a5,0x80000
   10c54:	fff78793          	addi	a5,a5,-1 # 7fffffff <__BSS_END__+0x7ffe3257>
   10c58:	00b7f733          	and	a4,a5,a1
   10c5c:	00a76733          	or	a4,a4,a0
   10c60:	00d7fe33          	and	t3,a5,a3
   10c64:	00068893          	mv	a7,a3
   10c68:	0e070e63          	beqz	a4,10d64 <_ZN6tflite20IntegerDoubleCompareEdd+0x114>
   10c6c:	0145d713          	srli	a4,a1,0x14
   10c70:	7ff77713          	andi	a4,a4,2047
   10c74:	7ff00813          	li	a6,2047
   10c78:	0b070c63          	beq	a4,a6,10d30 <_ZN6tflite20IntegerDoubleCompareEdd+0xe0>
   10c7c:	00a59793          	slli	a5,a1,0xa
   10c80:	01655813          	srli	a6,a0,0x16
   10c84:	40000337          	lui	t1,0x40000
   10c88:	00a51513          	slli	a0,a0,0xa
   10c8c:	01078833          	add	a6,a5,a6
   10c90:	fff30f13          	addi	t5,t1,-1 # 3fffffff <__BSS_END__+0x3ffe3257>
   10c94:	00a55513          	srli	a0,a0,0xa
   10c98:	00200eb7          	lui	t4,0x200
   10c9c:	c0270793          	addi	a5,a4,-1022
   10ca0:	01e87833          	and	a6,a6,t5
   10ca4:	00aef663          	bgeu	t4,a0,10cb0 <_ZN6tflite20IntegerDoubleCompareEdd+0x60>
   10ca8:	40000337          	lui	t1,0x40000
   10cac:	00130313          	addi	t1,t1,1 # 40000001 <__BSS_END__+0x3ffe3259>
   10cb0:	00680333          	add	t1,a6,t1
   10cb4:	01033833          	sltu	a6,t1,a6
   10cb8:	00ce6733          	or	a4,t3,a2
   10cbc:	1005cc63          	bltz	a1,10dd4 <_ZN6tflite20IntegerDoubleCompareEdd+0x184>
   10cc0:	0c070063          	beqz	a4,10d80 <_ZN6tflite20IntegerDoubleCompareEdd+0x130>
   10cc4:	0146de13          	srli	t3,a3,0x14
   10cc8:	7ffe7e13          	andi	t3,t3,2047
   10ccc:	7ff00713          	li	a4,2047
   10cd0:	00100513          	li	a0,1
   10cd4:	04ee0c63          	beq	t3,a4,10d2c <_ZN6tflite20IntegerDoubleCompareEdd+0xdc>
   10cd8:	00a69693          	slli	a3,a3,0xa
   10cdc:	01665593          	srli	a1,a2,0x16
   10ce0:	40000737          	lui	a4,0x40000
   10ce4:	00a61613          	slli	a2,a2,0xa
   10ce8:	00b685b3          	add	a1,a3,a1
   10cec:	fff70513          	addi	a0,a4,-1 # 3fffffff <__BSS_END__+0x3ffe3257>
   10cf0:	00a65613          	srli	a2,a2,0xa
   10cf4:	002006b7          	lui	a3,0x200
   10cf8:	00a5f5b3          	and	a1,a1,a0
   10cfc:	00c6f663          	bgeu	a3,a2,10d08 <_ZN6tflite20IntegerDoubleCompareEdd+0xb8>
   10d00:	40000737          	lui	a4,0x40000
   10d04:	00170713          	addi	a4,a4,1 # 40000001 <__BSS_END__+0x3ffe3259>
   10d08:	00e58733          	add	a4,a1,a4
   10d0c:	800006b7          	lui	a3,0x80000
   10d10:	00b735b3          	sltu	a1,a4,a1
   10d14:	fff68693          	addi	a3,a3,-1 # 7fffffff <__BSS_END__+0x7ffe3257>
   10d18:	0c08cc63          	bltz	a7,10df0 <_ZN6tflite20IntegerDoubleCompareEdd+0x1a0>
   10d1c:	0ed78c63          	beq	a5,a3,10e14 <_ZN6tflite20IntegerDoubleCompareEdd+0x1c4>
   10d20:	c02e0e13          	addi	t3,t3,-1022
   10d24:	fff00513          	li	a0,-1
   10d28:	09c7dc63          	bge	a5,t3,10dc0 <_ZN6tflite20IntegerDoubleCompareEdd+0x170>
   10d2c:	00008067          	ret
   10d30:	ffc00737          	lui	a4,0xffc00
   10d34:	00c59813          	slli	a6,a1,0xc
   10d38:	00a77733          	and	a4,a4,a0
   10d3c:	00c85813          	srli	a6,a6,0xc
   10d40:	01076733          	or	a4,a4,a6
   10d44:	06071263          	bnez	a4,10da8 <_ZN6tflite20IntegerDoubleCompareEdd+0x158>
   10d48:	00ce6733          	or	a4,t3,a2
   10d4c:	00100513          	li	a0,1
   10d50:	fc070ee3          	beqz	a4,10d2c <_ZN6tflite20IntegerDoubleCompareEdd+0xdc>
   10d54:	41f5d313          	srai	t1,a1,0x1f
   10d58:	00f34833          	xor	a6,t1,a5
   10d5c:	fff34313          	not	t1,t1
   10d60:	f65ff06f          	j	10cc4 <_ZN6tflite20IntegerDoubleCompareEdd+0x74>
   10d64:	00ce6733          	or	a4,t3,a2
   10d68:	00000513          	li	a0,0
   10d6c:	fc0700e3          	beqz	a4,10d2c <_ZN6tflite20IntegerDoubleCompareEdd+0xdc>
   10d70:	00000793          	li	a5,0
   10d74:	00000313          	li	t1,0
   10d78:	00000813          	li	a6,0
   10d7c:	f49ff06f          	j	10cc4 <_ZN6tflite20IntegerDoubleCompareEdd+0x74>
   10d80:	fff00513          	li	a0,-1
   10d84:	fa07c4e3          	bltz	a5,10d2c <_ZN6tflite20IntegerDoubleCompareEdd+0xdc>
   10d88:	00100513          	li	a0,1
   10d8c:	00000593          	li	a1,0
   10d90:	f8079ee3          	bnez	a5,10d2c <_ZN6tflite20IntegerDoubleCompareEdd+0xdc>
   10d94:	00100513          	li	a0,1
   10d98:	f905cae3          	blt	a1,a6,10d2c <_ZN6tflite20IntegerDoubleCompareEdd+0xdc>
   10d9c:	08b80863          	beq	a6,a1,10e2c <_ZN6tflite20IntegerDoubleCompareEdd+0x1dc>
   10da0:	00000513          	li	a0,0
   10da4:	00008067          	ret
   10da8:	00ce6733          	or	a4,t3,a2
   10dac:	00100513          	li	a0,1
   10db0:	f6070ee3          	beqz	a4,10d2c <_ZN6tflite20IntegerDoubleCompareEdd+0xdc>
   10db4:	00000313          	li	t1,0
   10db8:	00000813          	li	a6,0
   10dbc:	f09ff06f          	j	10cc4 <_ZN6tflite20IntegerDoubleCompareEdd+0x74>
   10dc0:	00100513          	li	a0,1
   10dc4:	f6fe44e3          	blt	t3,a5,10d2c <_ZN6tflite20IntegerDoubleCompareEdd+0xdc>
   10dc8:	04b85a63          	bge	a6,a1,10e1c <_ZN6tflite20IntegerDoubleCompareEdd+0x1cc>
   10dcc:	fff00513          	li	a0,-1
   10dd0:	00008067          	ret
   10dd4:	fff00513          	li	a0,-1
   10dd8:	f4070ae3          	beqz	a4,10d2c <_ZN6tflite20IntegerDoubleCompareEdd+0xdc>
   10ddc:	00603733          	snez	a4,t1
   10de0:	41000833          	neg	a6,a6
   10de4:	40e80833          	sub	a6,a6,a4
   10de8:	40600333          	neg	t1,t1
   10dec:	ed9ff06f          	j	10cc4 <_ZN6tflite20IntegerDoubleCompareEdd+0x74>
   10df0:	02d78263          	beq	a5,a3,10e14 <_ZN6tflite20IntegerDoubleCompareEdd+0x1c4>
   10df4:	010366b3          	or	a3,t1,a6
   10df8:	00100513          	li	a0,1
   10dfc:	f20688e3          	beqz	a3,10d2c <_ZN6tflite20IntegerDoubleCompareEdd+0xdc>
   10e00:	00e036b3          	snez	a3,a4
   10e04:	40b005b3          	neg	a1,a1
   10e08:	40d585b3          	sub	a1,a1,a3
   10e0c:	40e00733          	neg	a4,a4
   10e10:	f11ff06f          	j	10d20 <_ZN6tflite20IntegerDoubleCompareEdd+0xd0>
   10e14:	00100513          	li	a0,1
   10e18:	00008067          	ret
   10e1c:	f7059ce3          	bne	a1,a6,10d94 <_ZN6tflite20IntegerDoubleCompareEdd+0x144>
   10e20:	f6e37ae3          	bgeu	t1,a4,10d94 <_ZN6tflite20IntegerDoubleCompareEdd+0x144>
   10e24:	fff00513          	li	a0,-1
   10e28:	00008067          	ret
   10e2c:	f6677ae3          	bgeu	a4,t1,10da0 <_ZN6tflite20IntegerDoubleCompareEdd+0x150>
   10e30:	00008067          	ret

00010e34 <_ZN6tflite24PreprocessSoftmaxScalingEddiPlPi>:
   10e34:	fd010113          	addi	sp,sp,-48
   10e38:	800008b7          	lui	a7,0x80000
   10e3c:	01312e23          	sw	s3,28(sp)
   10e40:	00050993          	mv	s3,a0
   10e44:	00e8d533          	srl	a0,a7,a4
   10e48:	02112623          	sw	ra,44(sp)
   10e4c:	02812423          	sw	s0,40(sp)
   10e50:	02912223          	sw	s1,36(sp)
   10e54:	03212023          	sw	s2,32(sp)
   10e58:	01412c23          	sw	s4,24(sp)
   10e5c:	01512a23          	sw	s5,20(sp)
   10e60:	00058a13          	mv	s4,a1
   10e64:	00078a93          	mv	s5,a5
   10e68:	00080913          	mv	s2,a6
   10e6c:	00c12423          	sw	a2,8(sp)
   10e70:	00d12623          	sw	a3,12(sp)
   10e74:	06d020ef          	jal	136e0 <__floatsidf>
   10e78:	00812603          	lw	a2,8(sp)
   10e7c:	00c12683          	lw	a3,12(sp)
   10e80:	00050413          	mv	s0,a0
   10e84:	00058493          	mv	s1,a1
   10e88:	00098513          	mv	a0,s3
   10e8c:	000a0593          	mv	a1,s4
   10e90:	138020ef          	jal	12fc8 <__muldf3>
   10e94:	00050613          	mv	a2,a0
   10e98:	00058693          	mv	a3,a1
   10e9c:	00040513          	mv	a0,s0
   10ea0:	00048593          	mv	a1,s1
   10ea4:	124020ef          	jal	12fc8 <__muldf3>
   10ea8:	ef41a403          	lw	s0,-268(gp) # 1c9e4 <__SDATA_BEGIN__+0x2c>
   10eac:	ef01a483          	lw	s1,-272(gp) # 1c9e0 <__SDATA_BEGIN__+0x28>
   10eb0:	00050a13          	mv	s4,a0
   10eb4:	00040693          	mv	a3,s0
   10eb8:	00048613          	mv	a2,s1
   10ebc:	00058993          	mv	s3,a1
   10ec0:	759010ef          	jal	12e18 <__gedf2>
   10ec4:	00a04663          	bgtz	a0,10ed0 <_ZN6tflite24PreprocessSoftmaxScalingEddiPlPi+0x9c>
   10ec8:	000a0493          	mv	s1,s4
   10ecc:	00098413          	mv	s0,s3
   10ed0:	ed01a603          	lw	a2,-304(gp) # 1c9c0 <__SDATA_BEGIN__+0x8>
   10ed4:	ed41a683          	lw	a3,-300(gp) # 1c9c4 <__SDATA_BEGIN__+0xc>
   10ed8:	00048513          	mv	a0,s1
   10edc:	00040593          	mv	a1,s0
   10ee0:	739010ef          	jal	12e18 <__gedf2>
   10ee4:	04a05263          	blez	a0,10f28 <_ZN6tflite24PreprocessSoftmaxScalingEddiPlPi+0xf4>
   10ee8:	00048513          	mv	a0,s1
   10eec:	00040593          	mv	a1,s0
   10ef0:	000a8613          	mv	a2,s5
   10ef4:	00090693          	mv	a3,s2
   10ef8:	eccff0ef          	jal	105c4 <_ZN6tflite18QuantizeMultiplierEdPlPi.part.0>
   10efc:	00092783          	lw	a5,0(s2)
   10f00:	0207c463          	bltz	a5,10f28 <_ZN6tflite24PreprocessSoftmaxScalingEddiPlPi+0xf4>
   10f04:	02c12083          	lw	ra,44(sp)
   10f08:	02812403          	lw	s0,40(sp)
   10f0c:	02412483          	lw	s1,36(sp)
   10f10:	02012903          	lw	s2,32(sp)
   10f14:	01c12983          	lw	s3,28(sp)
   10f18:	01812a03          	lw	s4,24(sp)
   10f1c:	01412a83          	lw	s5,20(sp)
   10f20:	03010113          	addi	sp,sp,48
   10f24:	00008067          	ret
   10f28:	024040ef          	jal	14f4c <abort>

00010f2c <_ZN6tflite30PreprocessLogSoftmaxScalingExpEddiPlPiS0_S1_>:
   10f2c:	fb010113          	addi	sp,sp,-80
   10f30:	80000337          	lui	t1,0x80000
   10f34:	03612823          	sw	s6,48(sp)
   10f38:	00050b13          	mv	s6,a0
   10f3c:	00e35533          	srl	a0,t1,a4
   10f40:	04112623          	sw	ra,76(sp)
   10f44:	04812423          	sw	s0,72(sp)
   10f48:	04912223          	sw	s1,68(sp)
   10f4c:	05212023          	sw	s2,64(sp)
   10f50:	00078493          	mv	s1,a5
   10f54:	03312e23          	sw	s3,60(sp)
   10f58:	03412c23          	sw	s4,56(sp)
   10f5c:	03512a23          	sw	s5,52(sp)
   10f60:	03712623          	sw	s7,44(sp)
   10f64:	03812423          	sw	s8,40(sp)
   10f68:	00080913          	mv	s2,a6
   10f6c:	00088c13          	mv	s8,a7
   10f70:	00058b93          	mv	s7,a1
   10f74:	00c12423          	sw	a2,8(sp)
   10f78:	00d12623          	sw	a3,12(sp)
   10f7c:	764020ef          	jal	136e0 <__floatsidf>
   10f80:	00812603          	lw	a2,8(sp)
   10f84:	00c12683          	lw	a3,12(sp)
   10f88:	00050a13          	mv	s4,a0
   10f8c:	00058a93          	mv	s5,a1
   10f90:	000b0513          	mv	a0,s6
   10f94:	000b8593          	mv	a1,s7
   10f98:	030020ef          	jal	12fc8 <__muldf3>
   10f9c:	00050613          	mv	a2,a0
   10fa0:	00058693          	mv	a3,a1
   10fa4:	000a0513          	mv	a0,s4
   10fa8:	000a8593          	mv	a1,s5
   10fac:	01c020ef          	jal	12fc8 <__muldf3>
   10fb0:	ef41a403          	lw	s0,-268(gp) # 1c9e4 <__SDATA_BEGIN__+0x2c>
   10fb4:	ef01a983          	lw	s3,-272(gp) # 1c9e0 <__SDATA_BEGIN__+0x28>
   10fb8:	00050a93          	mv	s5,a0
   10fbc:	00040693          	mv	a3,s0
   10fc0:	00098613          	mv	a2,s3
   10fc4:	00058a13          	mv	s4,a1
   10fc8:	651010ef          	jal	12e18 <__gedf2>
   10fcc:	00a04663          	bgtz	a0,10fd8 <_ZN6tflite30PreprocessLogSoftmaxScalingExpEddiPlPiS0_S1_+0xac>
   10fd0:	000a8993          	mv	s3,s5
   10fd4:	000a0413          	mv	s0,s4
   10fd8:	ed01aa03          	lw	s4,-304(gp) # 1c9c0 <__SDATA_BEGIN__+0x8>
   10fdc:	ed41aa83          	lw	s5,-300(gp) # 1c9c4 <__SDATA_BEGIN__+0xc>
   10fe0:	00098513          	mv	a0,s3
   10fe4:	00040593          	mv	a1,s0
   10fe8:	000a0613          	mv	a2,s4
   10fec:	000a8693          	mv	a3,s5
   10ff0:	629010ef          	jal	12e18 <__gedf2>
   10ff4:	0ca05a63          	blez	a0,110c8 <_ZN6tflite30PreprocessLogSoftmaxScalingExpEddiPlPiS0_S1_+0x19c>
   10ff8:	00098513          	mv	a0,s3
   10ffc:	00040593          	mv	a1,s0
   11000:	00090693          	mv	a3,s2
   11004:	00048613          	mv	a2,s1
   11008:	dbcff0ef          	jal	105c4 <_ZN6tflite18QuantizeMultiplierEdPlPi.part.0>
   1100c:	00092783          	lw	a5,0(s2)
   11010:	0a07cc63          	bltz	a5,110c8 <_ZN6tflite30PreprocessLogSoftmaxScalingExpEddiPlPiS0_S1_+0x19c>
   11014:	80000537          	lui	a0,0x80000
   11018:	00f55533          	srl	a0,a0,a5
   1101c:	6c4020ef          	jal	136e0 <__floatsidf>
   11020:	00050913          	mv	s2,a0
   11024:	0004a503          	lw	a0,0(s1)
   11028:	00058993          	mv	s3,a1
   1102c:	6b4020ef          	jal	136e0 <__floatsidf>
   11030:	00050613          	mv	a2,a0
   11034:	00058693          	mv	a3,a1
   11038:	00090513          	mv	a0,s2
   1103c:	00098593          	mv	a1,s3
   11040:	590010ef          	jal	125d0 <__divdf3>
   11044:	000a0613          	mv	a2,s4
   11048:	000a8693          	mv	a3,s5
   1104c:	00050413          	mv	s0,a0
   11050:	00058493          	mv	s1,a1
   11054:	69d010ef          	jal	12ef0 <__ledf2>
   11058:	06055863          	bgez	a0,110c8 <_ZN6tflite30PreprocessLogSoftmaxScalingExpEddiPlPiS0_S1_+0x19c>
   1105c:	00000613          	li	a2,0
   11060:	00000693          	li	a3,0
   11064:	00040513          	mv	a0,s0
   11068:	00048593          	mv	a1,s1
   1106c:	5ad010ef          	jal	12e18 <__gedf2>
   11070:	04a05c63          	blez	a0,110c8 <_ZN6tflite30PreprocessLogSoftmaxScalingExpEddiPlPiS0_S1_+0x19c>
   11074:	00040513          	mv	a0,s0
   11078:	00048593          	mv	a1,s1
   1107c:	000c0613          	mv	a2,s8
   11080:	01c10693          	addi	a3,sp,28
   11084:	d40ff0ef          	jal	105c4 <_ZN6tflite18QuantizeMultiplierEdPlPi.part.0>
   11088:	01c12783          	lw	a5,28(sp)
   1108c:	02f04e63          	bgtz	a5,110c8 <_ZN6tflite30PreprocessLogSoftmaxScalingExpEddiPlPiS0_S1_+0x19c>
   11090:	05012703          	lw	a4,80(sp)
   11094:	04c12083          	lw	ra,76(sp)
   11098:	04812403          	lw	s0,72(sp)
   1109c:	00f72023          	sw	a5,0(a4) # ffc00000 <__BSS_END__+0xffbe3258>
   110a0:	04412483          	lw	s1,68(sp)
   110a4:	04012903          	lw	s2,64(sp)
   110a8:	03c12983          	lw	s3,60(sp)
   110ac:	03812a03          	lw	s4,56(sp)
   110b0:	03412a83          	lw	s5,52(sp)
   110b4:	03012b03          	lw	s6,48(sp)
   110b8:	02c12b83          	lw	s7,44(sp)
   110bc:	02812c03          	lw	s8,40(sp)
   110c0:	05010113          	addi	sp,sp,80
   110c4:	00008067          	ret
   110c8:	685030ef          	jal	14f4c <abort>

000110cc <_ZN6tflite20CalculateInputRadiusEiii>:
   110cc:	fd010113          	addi	sp,sp,-48
   110d0:	02812423          	sw	s0,40(sp)
   110d4:	00100413          	li	s0,1
   110d8:	02912223          	sw	s1,36(sp)
   110dc:	00050493          	mv	s1,a0
   110e0:	00a41533          	sll	a0,s0,a0
   110e4:	fff50513          	addi	a0,a0,-1 # 7fffffff <__BSS_END__+0x7ffe3257>
   110e8:	03212023          	sw	s2,32(sp)
   110ec:	01312e23          	sw	s3,28(sp)
   110f0:	01412c23          	sw	s4,24(sp)
   110f4:	00c12623          	sw	a2,12(sp)
   110f8:	02112623          	sw	ra,44(sp)
   110fc:	00058913          	mv	s2,a1
   11100:	5e0020ef          	jal	136e0 <__floatsidf>
   11104:	00c12603          	lw	a2,12(sp)
   11108:	00050993          	mv	s3,a0
   1110c:	00058a13          	mv	s4,a1
   11110:	40960633          	sub	a2,a2,s1
   11114:	fe060793          	addi	a5,a2,-32
   11118:	0807c063          	bltz	a5,11198 <_ZN6tflite20CalculateInputRadiusEiii+0xcc>
   1111c:	00f415b3          	sll	a1,s0,a5
   11120:	00000513          	li	a0,0
   11124:	720020ef          	jal	13844 <__floatdidf>
   11128:	00050613          	mv	a2,a0
   1112c:	00058693          	mv	a3,a1
   11130:	00098513          	mv	a0,s3
   11134:	000a0593          	mv	a1,s4
   11138:	691010ef          	jal	12fc8 <__muldf3>
   1113c:	fe090793          	addi	a5,s2,-32
   11140:	00050413          	mv	s0,a0
   11144:	00058493          	mv	s1,a1
   11148:	0407ce63          	bltz	a5,111a4 <_ZN6tflite20CalculateInputRadiusEiii+0xd8>
   1114c:	00100593          	li	a1,1
   11150:	00f595b3          	sll	a1,a1,a5
   11154:	00000513          	li	a0,0
   11158:	6ec020ef          	jal	13844 <__floatdidf>
   1115c:	00050613          	mv	a2,a0
   11160:	00058693          	mv	a3,a1
   11164:	00040513          	mv	a0,s0
   11168:	00048593          	mv	a1,s1
   1116c:	464010ef          	jal	125d0 <__divdf3>
   11170:	3ec000ef          	jal	1155c <floor>
   11174:	4f0020ef          	jal	13664 <__fixdfsi>
   11178:	02c12083          	lw	ra,44(sp)
   1117c:	02812403          	lw	s0,40(sp)
   11180:	02412483          	lw	s1,36(sp)
   11184:	02012903          	lw	s2,32(sp)
   11188:	01c12983          	lw	s3,28(sp)
   1118c:	01812a03          	lw	s4,24(sp)
   11190:	03010113          	addi	sp,sp,48
   11194:	00008067          	ret
   11198:	00c41533          	sll	a0,s0,a2
   1119c:	00000593          	li	a1,0
   111a0:	f85ff06f          	j	11124 <_ZN6tflite20CalculateInputRadiusEiii+0x58>
   111a4:	00100513          	li	a0,1
   111a8:	01251533          	sll	a0,a0,s2
   111ac:	00000593          	li	a1,0
   111b0:	fa9ff06f          	j	11158 <_ZN6tflite20CalculateInputRadiusEiii+0x8c>

000111b4 <_ZN6tflite22NudgeQuantizationRangeEffiiPfS0_S0_>:
   111b4:	fc010113          	addi	sp,sp,-64
   111b8:	03412423          	sw	s4,40(sp)
   111bc:	00050a13          	mv	s4,a0
   111c0:	00060513          	mv	a0,a2
   111c4:	02112e23          	sw	ra,60(sp)
   111c8:	00c12623          	sw	a2,12(sp)
   111cc:	02812c23          	sw	s0,56(sp)
   111d0:	02912a23          	sw	s1,52(sp)
   111d4:	03212823          	sw	s2,48(sp)
   111d8:	00058493          	mv	s1,a1
   111dc:	00068913          	mv	s2,a3
   111e0:	03312623          	sw	s3,44(sp)
   111e4:	03512223          	sw	s5,36(sp)
   111e8:	00080993          	mv	s3,a6
   111ec:	00070a93          	mv	s5,a4
   111f0:	03612023          	sw	s6,32(sp)
   111f4:	01712e23          	sw	s7,28(sp)
   111f8:	00078b13          	mv	s6,a5
   111fc:	00068b93          	mv	s7,a3
   11200:	219030ef          	jal	14c18 <__floatsisf>
   11204:	00050413          	mv	s0,a0
   11208:	00090513          	mv	a0,s2
   1120c:	20d030ef          	jal	14c18 <__floatsisf>
   11210:	000a0593          	mv	a1,s4
   11214:	00050913          	mv	s2,a0
   11218:	00048513          	mv	a0,s1
   1121c:	49c030ef          	jal	146b8 <__subsf3>
   11220:	00050493          	mv	s1,a0
   11224:	00040593          	mv	a1,s0
   11228:	00090513          	mv	a0,s2
   1122c:	48c030ef          	jal	146b8 <__subsf3>
   11230:	00050593          	mv	a1,a0
   11234:	00048513          	mv	a0,s1
   11238:	429020ef          	jal	13e60 <__divsf3>
   1123c:	00050493          	mv	s1,a0
   11240:	00a9a023          	sw	a0,0(s3)
   11244:	00048593          	mv	a1,s1
   11248:	000a0513          	mv	a0,s4
   1124c:	415020ef          	jal	13e60 <__divsf3>
   11250:	00050593          	mv	a1,a0
   11254:	00040513          	mv	a0,s0
   11258:	460030ef          	jal	146b8 <__subsf3>
   1125c:	00050a13          	mv	s4,a0
   11260:	00050593          	mv	a1,a0
   11264:	00040513          	mv	a0,s0
   11268:	7d9020ef          	jal	14240 <__gesf2>
   1126c:	06a05663          	blez	a0,112d8 <_ZN6tflite22NudgeQuantizationRangeEffiiPfS0_S0_+0x124>
   11270:	00c15503          	lhu	a0,12(sp)
   11274:	1a5030ef          	jal	14c18 <__floatsisf>
   11278:	00050a13          	mv	s4,a0
   1127c:	00050593          	mv	a1,a0
   11280:	00040513          	mv	a0,s0
   11284:	434030ef          	jal	146b8 <__subsf3>
   11288:	00048593          	mv	a1,s1
   1128c:	0e4030ef          	jal	14370 <__mulsf3>
   11290:	000a0593          	mv	a1,s4
   11294:	00aaa023          	sw	a0,0(s5)
   11298:	00090513          	mv	a0,s2
   1129c:	41c030ef          	jal	146b8 <__subsf3>
   112a0:	0009a583          	lw	a1,0(s3)
   112a4:	0cc030ef          	jal	14370 <__mulsf3>
   112a8:	03c12083          	lw	ra,60(sp)
   112ac:	03812403          	lw	s0,56(sp)
   112b0:	00ab2023          	sw	a0,0(s6)
   112b4:	03412483          	lw	s1,52(sp)
   112b8:	03012903          	lw	s2,48(sp)
   112bc:	02c12983          	lw	s3,44(sp)
   112c0:	02812a03          	lw	s4,40(sp)
   112c4:	02412a83          	lw	s5,36(sp)
   112c8:	02012b03          	lw	s6,32(sp)
   112cc:	01c12b83          	lw	s7,28(sp)
   112d0:	04010113          	addi	sp,sp,64
   112d4:	00008067          	ret
   112d8:	000a0593          	mv	a1,s4
   112dc:	00090513          	mv	a0,s2
   112e0:	7f9020ef          	jal	142d8 <__lesf2>
   112e4:	00055863          	bgez	a0,112f4 <_ZN6tflite22NudgeQuantizationRangeEffiiPfS0_S0_+0x140>
   112e8:	010b9513          	slli	a0,s7,0x10
   112ec:	01055513          	srli	a0,a0,0x10
   112f0:	f85ff06f          	j	11274 <_ZN6tflite22NudgeQuantizationRangeEffiiPfS0_S0_+0xc0>
   112f4:	000a0513          	mv	a0,s4
   112f8:	6d0000ef          	jal	119c8 <roundf>
   112fc:	0b5030ef          	jal	14bb0 <__fixunssfsi>
   11300:	01051513          	slli	a0,a0,0x10
   11304:	01055513          	srli	a0,a0,0x10
   11308:	f6dff06f          	j	11274 <_ZN6tflite22NudgeQuantizationRangeEffiiPfS0_S0_+0xc0>

0001130c <_ZN6tflite17FakeQuantizeArrayEfffPKfPff>:
   1130c:	fd010113          	addi	sp,sp,-48
   11310:	02912223          	sw	s1,36(sp)
   11314:	01712623          	sw	s7,12(sp)
   11318:	00058493          	mv	s1,a1
   1131c:	00050b93          	mv	s7,a0
   11320:	00000593          	li	a1,0
   11324:	00078513          	mv	a0,a5
   11328:	03212023          	sw	s2,32(sp)
   1132c:	01312e23          	sw	s3,28(sp)
   11330:	01512a23          	sw	s5,20(sp)
   11334:	01612823          	sw	s6,16(sp)
   11338:	02112623          	sw	ra,44(sp)
   1133c:	00078b13          	mv	s6,a5
   11340:	00060a93          	mv	s5,a2
   11344:	00068993          	mv	s3,a3
   11348:	00070913          	mv	s2,a4
   1134c:	6f5020ef          	jal	14240 <__gesf2>
   11350:	0aa05663          	blez	a0,113fc <_ZN6tflite17FakeQuantizeArrayEfffPKfPff+0xf0>
   11354:	f081a503          	lw	a0,-248(gp) # 1c9f8 <__SDATA_BEGIN__+0x40>
   11358:	000b8593          	mv	a1,s7
   1135c:	01412c23          	sw	s4,24(sp)
   11360:	01812423          	sw	s8,8(sp)
   11364:	02812423          	sw	s0,40(sp)
   11368:	2f9020ef          	jal	13e60 <__divsf3>
   1136c:	00050c13          	mv	s8,a0
   11370:	00000a13          	li	s4,0
   11374:	0009a403          	lw	s0,0(s3)
   11378:	00048593          	mv	a1,s1
   1137c:	00040513          	mv	a0,s0
   11380:	6c1020ef          	jal	14240 <__gesf2>
   11384:	000a8593          	mv	a1,s5
   11388:	00a04463          	bgtz	a0,11390 <_ZN6tflite17FakeQuantizeArrayEfffPKfPff+0x84>
   1138c:	00048413          	mv	s0,s1
   11390:	00040513          	mv	a0,s0
   11394:	745020ef          	jal	142d8 <__lesf2>
   11398:	00048593          	mv	a1,s1
   1139c:	00054463          	bltz	a0,113a4 <_ZN6tflite17FakeQuantizeArrayEfffPKfPff+0x98>
   113a0:	000a8413          	mv	s0,s5
   113a4:	00040513          	mv	a0,s0
   113a8:	310030ef          	jal	146b8 <__subsf3>
   113ac:	000c0593          	mv	a1,s8
   113b0:	7c1020ef          	jal	14370 <__mulsf3>
   113b4:	614000ef          	jal	119c8 <roundf>
   113b8:	00050593          	mv	a1,a0
   113bc:	000b8513          	mv	a0,s7
   113c0:	7b1020ef          	jal	14370 <__mulsf3>
   113c4:	00048593          	mv	a1,s1
   113c8:	66c020ef          	jal	13a34 <__addsf3>
   113cc:	001a0a13          	addi	s4,s4,1
   113d0:	00a92023          	sw	a0,0(s2)
   113d4:	000a0513          	mv	a0,s4
   113d8:	041030ef          	jal	14c18 <__floatsisf>
   113dc:	000b0593          	mv	a1,s6
   113e0:	00498993          	addi	s3,s3,4
   113e4:	00490913          	addi	s2,s2,4
   113e8:	6f1020ef          	jal	142d8 <__lesf2>
   113ec:	f80544e3          	bltz	a0,11374 <_ZN6tflite17FakeQuantizeArrayEfffPKfPff+0x68>
   113f0:	02812403          	lw	s0,40(sp)
   113f4:	01812a03          	lw	s4,24(sp)
   113f8:	00812c03          	lw	s8,8(sp)
   113fc:	02c12083          	lw	ra,44(sp)
   11400:	02412483          	lw	s1,36(sp)
   11404:	02012903          	lw	s2,32(sp)
   11408:	01c12983          	lw	s3,28(sp)
   1140c:	01412a83          	lw	s5,20(sp)
   11410:	01012b03          	lw	s6,16(sp)
   11414:	00c12b83          	lw	s7,12(sp)
   11418:	03010113          	addi	sp,sp,48
   1141c:	00008067          	ret

00011420 <_ZN6tflite11CheckedLog2EfPi>:
   11420:	fe010113          	addi	sp,sp,-32
   11424:	00112e23          	sw	ra,28(sp)
   11428:	00812c23          	sw	s0,24(sp)
   1142c:	00912a23          	sw	s1,20(sp)
   11430:	00058413          	mv	s0,a1
   11434:	3ec000ef          	jal	11820 <logf>
   11438:	f0c1a583          	lw	a1,-244(gp) # 1c9fc <__SDATA_BEGIN__+0x44>
   1143c:	735020ef          	jal	14370 <__mulsf3>
   11440:	00050493          	mv	s1,a0
   11444:	584000ef          	jal	119c8 <roundf>
   11448:	00a12623          	sw	a0,12(sp)
   1144c:	6f4030ef          	jal	14b40 <__fixsfsi>
   11450:	00c12583          	lw	a1,12(sp)
   11454:	00a42023          	sw	a0,0(s0)
   11458:	00048513          	mv	a0,s1
   1145c:	25c030ef          	jal	146b8 <__subsf3>
   11460:	f101a583          	lw	a1,-240(gp) # 1ca00 <__SDATA_BEGIN__+0x48>
   11464:	00151513          	slli	a0,a0,0x1
   11468:	00155513          	srli	a0,a0,0x1
   1146c:	66d020ef          	jal	142d8 <__lesf2>
   11470:	01c12083          	lw	ra,28(sp)
   11474:	01812403          	lw	s0,24(sp)
   11478:	01412483          	lw	s1,20(sp)
   1147c:	01f55513          	srli	a0,a0,0x1f
   11480:	02010113          	addi	sp,sp,32
   11484:	00008067          	ret

00011488 <_ZN6tflite23QuantizeMultiplierArrayEPKdjPlPi>:
   11488:	0c058863          	beqz	a1,11558 <_ZN6tflite23QuantizeMultiplierArrayEPKdjPlPi+0xd0>
   1148c:	fe010113          	addi	sp,sp,-32
   11490:	00812c23          	sw	s0,24(sp)
   11494:	00912a23          	sw	s1,20(sp)
   11498:	01212823          	sw	s2,16(sp)
   1149c:	01312623          	sw	s3,12(sp)
   114a0:	01612023          	sw	s6,0(sp)
   114a4:	00112e23          	sw	ra,28(sp)
   114a8:	01412423          	sw	s4,8(sp)
   114ac:	01512223          	sw	s5,4(sp)
   114b0:	00058b13          	mv	s6,a1
   114b4:	00050913          	mv	s2,a0
   114b8:	00060493          	mv	s1,a2
   114bc:	00068413          	mv	s0,a3
   114c0:	00000993          	li	s3,0
   114c4:	0200006f          	j	114e4 <_ZN6tflite23QuantizeMultiplierArrayEPKdjPlPi+0x5c>
   114c8:	0004a023          	sw	zero,0(s1)
   114cc:	00042023          	sw	zero,0(s0)
   114d0:	00198993          	addi	s3,s3,1
   114d4:	00890913          	addi	s2,s2,8
   114d8:	00448493          	addi	s1,s1,4
   114dc:	00440413          	addi	s0,s0,4
   114e0:	053b0863          	beq	s6,s3,11530 <_ZN6tflite23QuantizeMultiplierArrayEPKdjPlPi+0xa8>
   114e4:	00092a03          	lw	s4,0(s2)
   114e8:	00492a83          	lw	s5,4(s2)
   114ec:	00000613          	li	a2,0
   114f0:	00000693          	li	a3,0
   114f4:	000a8593          	mv	a1,s5
   114f8:	000a0513          	mv	a0,s4
   114fc:	099010ef          	jal	12d94 <__eqdf2>
   11500:	00050793          	mv	a5,a0
   11504:	000a8593          	mv	a1,s5
   11508:	000a0513          	mv	a0,s4
   1150c:	00040693          	mv	a3,s0
   11510:	00048613          	mv	a2,s1
   11514:	fa078ae3          	beqz	a5,114c8 <_ZN6tflite23QuantizeMultiplierArrayEPKdjPlPi+0x40>
   11518:	00198993          	addi	s3,s3,1
   1151c:	8a8ff0ef          	jal	105c4 <_ZN6tflite18QuantizeMultiplierEdPlPi.part.0>
   11520:	00890913          	addi	s2,s2,8
   11524:	00448493          	addi	s1,s1,4
   11528:	00440413          	addi	s0,s0,4
   1152c:	fb3b1ce3          	bne	s6,s3,114e4 <_ZN6tflite23QuantizeMultiplierArrayEPKdjPlPi+0x5c>
   11530:	01c12083          	lw	ra,28(sp)
   11534:	01812403          	lw	s0,24(sp)
   11538:	01412483          	lw	s1,20(sp)
   1153c:	01012903          	lw	s2,16(sp)
   11540:	00c12983          	lw	s3,12(sp)
   11544:	00812a03          	lw	s4,8(sp)
   11548:	00412a83          	lw	s5,4(sp)
   1154c:	00012b03          	lw	s6,0(sp)
   11550:	02010113          	addi	sp,sp,32
   11554:	00008067          	ret
   11558:	00008067          	ret

0001155c <floor>:
   1155c:	4145d713          	srai	a4,a1,0x14
   11560:	fd010113          	addi	sp,sp,-48
   11564:	7ff77713          	andi	a4,a4,2047
   11568:	02112623          	sw	ra,44(sp)
   1156c:	c0170893          	addi	a7,a4,-1023
   11570:	01300693          	li	a3,19
   11574:	0b16c663          	blt	a3,a7,11620 <floor+0xc4>
   11578:	1408c863          	bltz	a7,116c8 <floor+0x16c>
   1157c:	00100fb7          	lui	t6,0x100
   11580:	ffff8e93          	addi	t4,t6,-1 # fffff <__BSS_END__+0xe3257>
   11584:	411edeb3          	sra	t4,t4,a7
   11588:	00bef633          	and	a2,t4,a1
   1158c:	00a66633          	or	a2,a2,a0
   11590:	00050693          	mv	a3,a0
   11594:	00058713          	mv	a4,a1
   11598:	06060a63          	beqz	a2,1160c <floor+0xb0>
   1159c:	ef81a603          	lw	a2,-264(gp) # 1c9e8 <__SDATA_BEGIN__+0x30>
   115a0:	efc1a683          	lw	a3,-260(gp) # 1c9ec <__SDATA_BEGIN__+0x34>
   115a4:	01d12623          	sw	t4,12(sp)
   115a8:	01112c23          	sw	a7,24(sp)
   115ac:	00b12a23          	sw	a1,20(sp)
   115b0:	00b12223          	sw	a1,4(sp)
   115b4:	00a12423          	sw	a0,8(sp)
   115b8:	00b12823          	sw	a1,16(sp)
   115bc:	0c9000ef          	jal	11e84 <__adddf3>
   115c0:	00000613          	li	a2,0
   115c4:	00000693          	li	a3,0
   115c8:	051010ef          	jal	12e18 <__gedf2>
   115cc:	00412e03          	lw	t3,4(sp)
   115d0:	00812303          	lw	t1,8(sp)
   115d4:	02a05863          	blez	a0,11604 <floor+0xa8>
   115d8:	01012f03          	lw	t5,16(sp)
   115dc:	00c12e83          	lw	t4,12(sp)
   115e0:	000f5c63          	bgez	t5,115f8 <floor+0x9c>
   115e4:	01812883          	lw	a7,24(sp)
   115e8:	01412783          	lw	a5,20(sp)
   115ec:	00100fb7          	lui	t6,0x100
   115f0:	411fdfb3          	sra	t6,t6,a7
   115f4:	00ff8f33          	add	t5,t6,a5
   115f8:	fffece93          	not	t4,t4
   115fc:	01eefe33          	and	t3,t4,t5
   11600:	00000313          	li	t1,0
   11604:	00030693          	mv	a3,t1
   11608:	000e0713          	mv	a4,t3
   1160c:	02c12083          	lw	ra,44(sp)
   11610:	00068513          	mv	a0,a3
   11614:	00070593          	mv	a1,a4
   11618:	03010113          	addi	sp,sp,48
   1161c:	00008067          	ret
   11620:	03300693          	li	a3,51
   11624:	0316d663          	bge	a3,a7,11650 <floor+0xf4>
   11628:	40000613          	li	a2,1024
   1162c:	00050693          	mv	a3,a0
   11630:	00058713          	mv	a4,a1
   11634:	fcc89ce3          	bne	a7,a2,1160c <floor+0xb0>
   11638:	00058693          	mv	a3,a1
   1163c:	00050613          	mv	a2,a0
   11640:	045000ef          	jal	11e84 <__adddf3>
   11644:	00050693          	mv	a3,a0
   11648:	00058713          	mv	a4,a1
   1164c:	fc1ff06f          	j	1160c <floor+0xb0>
   11650:	bed70713          	addi	a4,a4,-1043
   11654:	fff00e93          	li	t4,-1
   11658:	00eedeb3          	srl	t4,t4,a4
   1165c:	00aef633          	and	a2,t4,a0
   11660:	00050693          	mv	a3,a0
   11664:	00058713          	mv	a4,a1
   11668:	fa0602e3          	beqz	a2,1160c <floor+0xb0>
   1166c:	ef81a603          	lw	a2,-264(gp) # 1c9e8 <__SDATA_BEGIN__+0x30>
   11670:	efc1a683          	lw	a3,-260(gp) # 1c9ec <__SDATA_BEGIN__+0x34>
   11674:	01d12823          	sw	t4,16(sp)
   11678:	01112c23          	sw	a7,24(sp)
   1167c:	00b12a23          	sw	a1,20(sp)
   11680:	00a12623          	sw	a0,12(sp)
   11684:	00b12223          	sw	a1,4(sp)
   11688:	00a12423          	sw	a0,8(sp)
   1168c:	00a12e23          	sw	a0,28(sp)
   11690:	7f4000ef          	jal	11e84 <__adddf3>
   11694:	00000613          	li	a2,0
   11698:	00000693          	li	a3,0
   1169c:	77c010ef          	jal	12e18 <__gedf2>
   116a0:	00412e03          	lw	t3,4(sp)
   116a4:	00812303          	lw	t1,8(sp)
   116a8:	f4a05ee3          	blez	a0,11604 <floor+0xa8>
   116ac:	00c12803          	lw	a6,12(sp)
   116b0:	01012e83          	lw	t4,16(sp)
   116b4:	00080313          	mv	t1,a6
   116b8:	060e4e63          	bltz	t3,11734 <floor+0x1d8>
   116bc:	fffece93          	not	t4,t4
   116c0:	006ef333          	and	t1,t4,t1
   116c4:	f41ff06f          	j	11604 <floor+0xa8>
   116c8:	ef81a603          	lw	a2,-264(gp) # 1c9e8 <__SDATA_BEGIN__+0x30>
   116cc:	efc1a683          	lw	a3,-260(gp) # 1c9ec <__SDATA_BEGIN__+0x34>
   116d0:	00b12823          	sw	a1,16(sp)
   116d4:	00a12623          	sw	a0,12(sp)
   116d8:	00a12423          	sw	a0,8(sp)
   116dc:	00b12223          	sw	a1,4(sp)
   116e0:	7a4000ef          	jal	11e84 <__adddf3>
   116e4:	00000613          	li	a2,0
   116e8:	00000693          	li	a3,0
   116ec:	72c010ef          	jal	12e18 <__gedf2>
   116f0:	00412e03          	lw	t3,4(sp)
   116f4:	00812303          	lw	t1,8(sp)
   116f8:	f0a056e3          	blez	a0,11604 <floor+0xa8>
   116fc:	000e4863          	bltz	t3,1170c <floor+0x1b0>
   11700:	00000313          	li	t1,0
   11704:	00000e13          	li	t3,0
   11708:	efdff06f          	j	11604 <floor+0xa8>
   1170c:	800005b7          	lui	a1,0x80000
   11710:	00c12803          	lw	a6,12(sp)
   11714:	fff58313          	addi	t1,a1,-1 # 7fffffff <__BSS_END__+0x7ffe3257>
   11718:	01c37333          	and	t1,t1,t3
   1171c:	01036333          	or	t1,t1,a6
   11720:	00058e13          	mv	t3,a1
   11724:	ee0300e3          	beqz	t1,11604 <floor+0xa8>
   11728:	00000313          	li	t1,0
   1172c:	bff00e37          	lui	t3,0xbff00
   11730:	ed5ff06f          	j	11604 <floor+0xa8>
   11734:	01812883          	lw	a7,24(sp)
   11738:	01400713          	li	a4,20
   1173c:	01412783          	lw	a5,20(sp)
   11740:	01c12f83          	lw	t6,28(sp)
   11744:	00e88e63          	beq	a7,a4,11760 <floor+0x204>
   11748:	03400713          	li	a4,52
   1174c:	41170733          	sub	a4,a4,a7
   11750:	00100313          	li	t1,1
   11754:	00e31333          	sll	t1,t1,a4
   11758:	01030333          	add	t1,t1,a6
   1175c:	f7f370e3          	bgeu	t1,t6,116bc <floor+0x160>
   11760:	00178e13          	addi	t3,a5,1
   11764:	f59ff06f          	j	116bc <floor+0x160>

00011768 <frexp>:
   11768:	80000837          	lui	a6,0x80000
   1176c:	fff80813          	addi	a6,a6,-1 # 7fffffff <__BSS_END__+0x7ffe3257>
   11770:	00062023          	sw	zero,0(a2)
   11774:	00b876b3          	and	a3,a6,a1
   11778:	7ff008b7          	lui	a7,0x7ff00
   1177c:	00058793          	mv	a5,a1
   11780:	00050713          	mv	a4,a0
   11784:	0916f863          	bgeu	a3,a7,11814 <frexp+0xac>
   11788:	00a6e8b3          	or	a7,a3,a0
   1178c:	08088463          	beqz	a7,11814 <frexp+0xac>
   11790:	fe010113          	addi	sp,sp,-32
   11794:	0145de13          	srli	t3,a1,0x14
   11798:	00112e23          	sw	ra,28(sp)
   1179c:	7ffe7e13          	andi	t3,t3,2047
   117a0:	00060893          	mv	a7,a2
   117a4:	00058313          	mv	t1,a1
   117a8:	00000613          	li	a2,0
   117ac:	020e1863          	bnez	t3,117dc <frexp+0x74>
   117b0:	f001a603          	lw	a2,-256(gp) # 1c9f0 <__SDATA_BEGIN__+0x38>
   117b4:	f041a683          	lw	a3,-252(gp) # 1c9f4 <__SDATA_BEGIN__+0x3c>
   117b8:	01112623          	sw	a7,12(sp)
   117bc:	00d010ef          	jal	12fc8 <__muldf3>
   117c0:	80000737          	lui	a4,0x80000
   117c4:	00c12883          	lw	a7,12(sp)
   117c8:	fff70813          	addi	a6,a4,-1 # 7fffffff <__BSS_END__+0x7ffe3257>
   117cc:	00b876b3          	and	a3,a6,a1
   117d0:	00058313          	mv	t1,a1
   117d4:	00050713          	mv	a4,a0
   117d8:	fca00613          	li	a2,-54
   117dc:	4146d693          	srai	a3,a3,0x14
   117e0:	801007b7          	lui	a5,0x80100
   117e4:	01c12083          	lw	ra,28(sp)
   117e8:	fff78793          	addi	a5,a5,-1 # 800fffff <__BSS_END__+0x800e3257>
   117ec:	c0268693          	addi	a3,a3,-1022
   117f0:	00f37333          	and	t1,t1,a5
   117f4:	00c686b3          	add	a3,a3,a2
   117f8:	3fe007b7          	lui	a5,0x3fe00
   117fc:	00f367b3          	or	a5,t1,a5
   11800:	00d8a023          	sw	a3,0(a7) # 7ff00000 <__BSS_END__+0x7fee3258>
   11804:	00070513          	mv	a0,a4
   11808:	00078593          	mv	a1,a5
   1180c:	02010113          	addi	sp,sp,32
   11810:	00008067          	ret
   11814:	00070513          	mv	a0,a4
   11818:	00078593          	mv	a1,a5
   1181c:	00008067          	ret

00011820 <logf>:
   11820:	ff010113          	addi	sp,sp,-16
   11824:	00812423          	sw	s0,8(sp)
   11828:	00912223          	sw	s1,4(sp)
   1182c:	00050413          	mv	s0,a0
   11830:	00112623          	sw	ra,12(sp)
   11834:	220000ef          	jal	11a54 <__ieee754_logf>
   11838:	00050493          	mv	s1,a0
   1183c:	00040593          	mv	a1,s0
   11840:	00040513          	mv	a0,s0
   11844:	2b8030ef          	jal	14afc <__unordsf2>
   11848:	02051a63          	bnez	a0,1187c <logf+0x5c>
   1184c:	00000593          	li	a1,0
   11850:	00040513          	mv	a0,s0
   11854:	1ed020ef          	jal	14240 <__gesf2>
   11858:	02a04263          	bgtz	a0,1187c <logf+0x5c>
   1185c:	00040513          	mv	a0,s0
   11860:	00000593          	li	a1,0
   11864:	171020ef          	jal	141d4 <__eqsf2>
   11868:	02051663          	bnez	a0,11894 <logf+0x74>
   1186c:	364060ef          	jal	17bd0 <__errno>
   11870:	f141a483          	lw	s1,-236(gp) # 1ca04 <__SDATA_BEGIN__+0x4c>
   11874:	02200713          	li	a4,34
   11878:	00e52023          	sw	a4,0(a0)
   1187c:	00c12083          	lw	ra,12(sp)
   11880:	00812403          	lw	s0,8(sp)
   11884:	00048513          	mv	a0,s1
   11888:	00412483          	lw	s1,4(sp)
   1188c:	01010113          	addi	sp,sp,16
   11890:	00008067          	ret
   11894:	33c060ef          	jal	17bd0 <__errno>
   11898:	00812403          	lw	s0,8(sp)
   1189c:	00c12083          	lw	ra,12(sp)
   118a0:	00412483          	lw	s1,4(sp)
   118a4:	02100713          	li	a4,33
   118a8:	00e52023          	sw	a4,0(a0)
   118ac:	0001b7b7          	lui	a5,0x1b
   118b0:	a0078513          	addi	a0,a5,-1536 # 1aa00 <_exit+0x1cc>
   118b4:	01010113          	addi	sp,sp,16
   118b8:	1080006f          	j	119c0 <nanf>

000118bc <round>:
   118bc:	4145d793          	srai	a5,a1,0x14
   118c0:	7ff7f793          	andi	a5,a5,2047
   118c4:	c0178613          	addi	a2,a5,-1023
   118c8:	01300813          	li	a6,19
   118cc:	00058693          	mv	a3,a1
   118d0:	00050893          	mv	a7,a0
   118d4:	04c84463          	blt	a6,a2,1191c <round+0x60>
   118d8:	0a064e63          	bltz	a2,11994 <round+0xd8>
   118dc:	001007b7          	lui	a5,0x100
   118e0:	fff78793          	addi	a5,a5,-1 # fffff <__BSS_END__+0xe3257>
   118e4:	40c7d7b3          	sra	a5,a5,a2
   118e8:	00b7f733          	and	a4,a5,a1
   118ec:	00a76733          	or	a4,a4,a0
   118f0:	0c070263          	beqz	a4,119b4 <round+0xf8>
   118f4:	00080737          	lui	a4,0x80
   118f8:	40c75733          	sra	a4,a4,a2
   118fc:	fff7c793          	not	a5,a5
   11900:	00b70733          	add	a4,a4,a1
   11904:	00f77733          	and	a4,a4,a5
   11908:	00000793          	li	a5,0
   1190c:	00070813          	mv	a6,a4
   11910:	00078513          	mv	a0,a5
   11914:	00080593          	mv	a1,a6
   11918:	00008067          	ret
   1191c:	03300313          	li	t1,51
   11920:	02c35863          	bge	t1,a2,11950 <round+0x94>
   11924:	40000713          	li	a4,1024
   11928:	00050793          	mv	a5,a0
   1192c:	00058813          	mv	a6,a1
   11930:	fee610e3          	bne	a2,a4,11910 <round+0x54>
   11934:	ff010113          	addi	sp,sp,-16
   11938:	00050613          	mv	a2,a0
   1193c:	00112623          	sw	ra,12(sp)
   11940:	544000ef          	jal	11e84 <__adddf3>
   11944:	00c12083          	lw	ra,12(sp)
   11948:	01010113          	addi	sp,sp,16
   1194c:	00008067          	ret
   11950:	bed78793          	addi	a5,a5,-1043
   11954:	00058713          	mv	a4,a1
   11958:	fff00593          	li	a1,-1
   1195c:	00f5d5b3          	srl	a1,a1,a5
   11960:	00a5f533          	and	a0,a1,a0
   11964:	00088793          	mv	a5,a7
   11968:	00068813          	mv	a6,a3
   1196c:	fa0502e3          	beqz	a0,11910 <round+0x54>
   11970:	40c30333          	sub	t1,t1,a2
   11974:	00100613          	li	a2,1
   11978:	00661633          	sll	a2,a2,t1
   1197c:	011607b3          	add	a5,a2,a7
   11980:	00c7f463          	bgeu	a5,a2,11988 <round+0xcc>
   11984:	00168713          	addi	a4,a3,1
   11988:	fff5c593          	not	a1,a1
   1198c:	00f5f7b3          	and	a5,a1,a5
   11990:	f7dff06f          	j	1190c <round+0x50>
   11994:	80000737          	lui	a4,0x80000
   11998:	fff00693          	li	a3,-1
   1199c:	00b77733          	and	a4,a4,a1
   119a0:	00000793          	li	a5,0
   119a4:	f6d614e3          	bne	a2,a3,1190c <round+0x50>
   119a8:	3ff006b7          	lui	a3,0x3ff00
   119ac:	00d76733          	or	a4,a4,a3
   119b0:	f5dff06f          	j	1190c <round+0x50>
   119b4:	00050793          	mv	a5,a0
   119b8:	00058813          	mv	a6,a1
   119bc:	f55ff06f          	j	11910 <round+0x54>

000119c0 <nanf>:
   119c0:	f181a503          	lw	a0,-232(gp) # 1ca08 <__SDATA_BEGIN__+0x50>
   119c4:	00008067          	ret

000119c8 <roundf>:
   119c8:	01755793          	srli	a5,a0,0x17
   119cc:	0ff7f793          	zext.b	a5,a5
   119d0:	f8178793          	addi	a5,a5,-127
   119d4:	01600693          	li	a3,22
   119d8:	02f6ce63          	blt	a3,a5,11a14 <roundf+0x4c>
   119dc:	0407ce63          	bltz	a5,11a38 <roundf+0x70>
   119e0:	008006b7          	lui	a3,0x800
   119e4:	fff68693          	addi	a3,a3,-1 # 7fffff <__BSS_END__+0x7e3257>
   119e8:	40f6d6b3          	sra	a3,a3,a5
   119ec:	00a6f633          	and	a2,a3,a0
   119f0:	00050593          	mv	a1,a0
   119f4:	00060c63          	beqz	a2,11a0c <roundf+0x44>
   119f8:	004005b7          	lui	a1,0x400
   119fc:	40f5d5b3          	sra	a1,a1,a5
   11a00:	fff6c693          	not	a3,a3
   11a04:	00a585b3          	add	a1,a1,a0
   11a08:	00b6f5b3          	and	a1,a3,a1
   11a0c:	00058513          	mv	a0,a1
   11a10:	00008067          	ret
   11a14:	08000693          	li	a3,128
   11a18:	00050593          	mv	a1,a0
   11a1c:	fed798e3          	bne	a5,a3,11a0c <roundf+0x44>
   11a20:	ff010113          	addi	sp,sp,-16
   11a24:	00112623          	sw	ra,12(sp)
   11a28:	00c020ef          	jal	13a34 <__addsf3>
   11a2c:	00c12083          	lw	ra,12(sp)
   11a30:	01010113          	addi	sp,sp,16
   11a34:	00008067          	ret
   11a38:	800005b7          	lui	a1,0x80000
   11a3c:	fff00693          	li	a3,-1
   11a40:	00a5f5b3          	and	a1,a1,a0
   11a44:	fcd794e3          	bne	a5,a3,11a0c <roundf+0x44>
   11a48:	3f8007b7          	lui	a5,0x3f800
   11a4c:	00f5e5b3          	or	a1,a1,a5
   11a50:	fbdff06f          	j	11a0c <roundf+0x44>

00011a54 <__ieee754_logf>:
   11a54:	fd010113          	addi	sp,sp,-48
   11a58:	02112623          	sw	ra,44(sp)
   11a5c:	00151793          	slli	a5,a0,0x1
   11a60:	0a078e63          	beqz	a5,11b1c <__ieee754_logf+0xc8>
   11a64:	00050593          	mv	a1,a0
   11a68:	00050793          	mv	a5,a0
   11a6c:	0c054463          	bltz	a0,11b34 <__ieee754_logf+0xe0>
   11a70:	7f800737          	lui	a4,0x7f800
   11a74:	26e55c63          	bge	a0,a4,11cec <__ieee754_logf+0x298>
   11a78:	01412c23          	sw	s4,24(sp)
   11a7c:	01512a23          	sw	s5,20(sp)
   11a80:	00800737          	lui	a4,0x800
   11a84:	00000813          	li	a6,0
   11a88:	00e55a63          	bge	a0,a4,11a9c <__ieee754_logf+0x48>
   11a8c:	f201a583          	lw	a1,-224(gp) # 1ca10 <__SDATA_BEGIN__+0x58>
   11a90:	0e1020ef          	jal	14370 <__mulsf3>
   11a94:	00050793          	mv	a5,a0
   11a98:	fe700813          	li	a6,-25
   11a9c:	00800637          	lui	a2,0x800
   11aa0:	fff60693          	addi	a3,a2,-1 # 7fffff <__BSS_END__+0x7e3257>
   11aa4:	004b0737          	lui	a4,0x4b0
   11aa8:	00d7f6b3          	and	a3,a5,a3
   11aac:	b2070713          	addi	a4,a4,-1248 # 4afb20 <__BSS_END__+0x492d78>
   11ab0:	00e68733          	add	a4,a3,a4
   11ab4:	00c77733          	and	a4,a4,a2
   11ab8:	f081a583          	lw	a1,-248(gp) # 1c9f8 <__SDATA_BEGIN__+0x40>
   11abc:	4177d793          	srai	a5,a5,0x17
   11ac0:	3f800537          	lui	a0,0x3f800
   11ac4:	00a74533          	xor	a0,a4,a0
   11ac8:	f8178793          	addi	a5,a5,-127 # 3f7fff81 <__BSS_END__+0x3f7e31d9>
   11acc:	010787b3          	add	a5,a5,a6
   11ad0:	41775713          	srai	a4,a4,0x17
   11ad4:	00d56533          	or	a0,a0,a3
   11ad8:	00f70a33          	add	s4,a4,a5
   11adc:	00d12423          	sw	a3,8(sp)
   11ae0:	3d9020ef          	jal	146b8 <__subsf3>
   11ae4:	00812683          	lw	a3,8(sp)
   11ae8:	00050a93          	mv	s5,a0
   11aec:	00f68793          	addi	a5,a3,15
   11af0:	00979713          	slli	a4,a5,0x9
   11af4:	00d75713          	srli	a4,a4,0xd
   11af8:	04071a63          	bnez	a4,11b4c <__ieee754_logf+0xf8>
   11afc:	00000593          	li	a1,0
   11b00:	6d4020ef          	jal	141d4 <__eqsf2>
   11b04:	1e051c63          	bnez	a0,11cfc <__ieee754_logf+0x2a8>
   11b08:	00000513          	li	a0,0
   11b0c:	320a1063          	bnez	s4,11e2c <__ieee754_logf+0x3d8>
   11b10:	01812a03          	lw	s4,24(sp)
   11b14:	01412a83          	lw	s5,20(sp)
   11b18:	0100006f          	j	11b28 <__ieee754_logf+0xd4>
   11b1c:	f1c1a503          	lw	a0,-228(gp) # 1ca0c <__SDATA_BEGIN__+0x54>
   11b20:	00000593          	li	a1,0
   11b24:	33c020ef          	jal	13e60 <__divsf3>
   11b28:	02c12083          	lw	ra,44(sp)
   11b2c:	03010113          	addi	sp,sp,48
   11b30:	00008067          	ret
   11b34:	385020ef          	jal	146b8 <__subsf3>
   11b38:	00000593          	li	a1,0
   11b3c:	324020ef          	jal	13e60 <__divsf3>
   11b40:	02c12083          	lw	ra,44(sp)
   11b44:	03010113          	addi	sp,sp,48
   11b48:	00008067          	ret
   11b4c:	f341a583          	lw	a1,-204(gp) # 1ca24 <__SDATA_BEGIN__+0x6c>
   11b50:	00d12423          	sw	a3,8(sp)
   11b54:	02812423          	sw	s0,40(sp)
   11b58:	02912223          	sw	s1,36(sp)
   11b5c:	01312e23          	sw	s3,28(sp)
   11b60:	01612823          	sw	s6,16(sp)
   11b64:	6d1010ef          	jal	13a34 <__addsf3>
   11b68:	00050593          	mv	a1,a0
   11b6c:	000a8513          	mv	a0,s5
   11b70:	2f0020ef          	jal	13e60 <__divsf3>
   11b74:	00050413          	mv	s0,a0
   11b78:	00050493          	mv	s1,a0
   11b7c:	000a0513          	mv	a0,s4
   11b80:	098030ef          	jal	14c18 <__floatsisf>
   11b84:	00040593          	mv	a1,s0
   11b88:	00050b13          	mv	s6,a0
   11b8c:	00040513          	mv	a0,s0
   11b90:	7e0020ef          	jal	14370 <__mulsf3>
   11b94:	00812683          	lw	a3,8(sp)
   11b98:	ffcf6737          	lui	a4,0xffcf6
   11b9c:	c3070713          	addi	a4,a4,-976 # ffcf5c30 <__BSS_END__+0xffcd8e88>
   11ba0:	00e68733          	add	a4,a3,a4
   11ba4:	00050593          	mv	a1,a0
   11ba8:	00d12623          	sw	a3,12(sp)
   11bac:	00e12423          	sw	a4,8(sp)
   11bb0:	00050993          	mv	s3,a0
   11bb4:	7bc020ef          	jal	14370 <__mulsf3>
   11bb8:	f381a583          	lw	a1,-200(gp) # 1ca28 <__SDATA_BEGIN__+0x70>
   11bbc:	00050413          	mv	s0,a0
   11bc0:	7b0020ef          	jal	14370 <__mulsf3>
   11bc4:	f3c1a583          	lw	a1,-196(gp) # 1ca2c <__SDATA_BEGIN__+0x74>
   11bc8:	66d010ef          	jal	13a34 <__addsf3>
   11bcc:	00040593          	mv	a1,s0
   11bd0:	7a0020ef          	jal	14370 <__mulsf3>
   11bd4:	f401a583          	lw	a1,-192(gp) # 1ca30 <__SDATA_BEGIN__+0x78>
   11bd8:	65d010ef          	jal	13a34 <__addsf3>
   11bdc:	00040593          	mv	a1,s0
   11be0:	790020ef          	jal	14370 <__mulsf3>
   11be4:	f441a583          	lw	a1,-188(gp) # 1ca34 <__SDATA_BEGIN__+0x7c>
   11be8:	64d010ef          	jal	13a34 <__addsf3>
   11bec:	00098593          	mv	a1,s3
   11bf0:	780020ef          	jal	14370 <__mulsf3>
   11bf4:	f481a583          	lw	a1,-184(gp) # 1ca38 <__SDATA_BEGIN__+0x80>
   11bf8:	00050993          	mv	s3,a0
   11bfc:	00040513          	mv	a0,s0
   11c00:	770020ef          	jal	14370 <__mulsf3>
   11c04:	f4c1a583          	lw	a1,-180(gp) # 1ca3c <__SDATA_BEGIN__+0x84>
   11c08:	62d010ef          	jal	13a34 <__addsf3>
   11c0c:	00040593          	mv	a1,s0
   11c10:	760020ef          	jal	14370 <__mulsf3>
   11c14:	f501a583          	lw	a1,-176(gp) # 1ca40 <__SDATA_BEGIN__+0x88>
   11c18:	61d010ef          	jal	13a34 <__addsf3>
   11c1c:	00040593          	mv	a1,s0
   11c20:	750020ef          	jal	14370 <__mulsf3>
   11c24:	00050593          	mv	a1,a0
   11c28:	00098513          	mv	a0,s3
   11c2c:	609010ef          	jal	13a34 <__addsf3>
   11c30:	00c12683          	lw	a3,12(sp)
   11c34:	00812703          	lw	a4,8(sp)
   11c38:	0035c7b7          	lui	a5,0x35c
   11c3c:	28878793          	addi	a5,a5,648 # 35c288 <__BSS_END__+0x33f4e0>
   11c40:	40d787b3          	sub	a5,a5,a3
   11c44:	00e7e7b3          	or	a5,a5,a4
   11c48:	10f05c63          	blez	a5,11d60 <__ieee754_logf+0x30c>
   11c4c:	f301a583          	lw	a1,-208(gp) # 1ca20 <__SDATA_BEGIN__+0x68>
   11c50:	00a12423          	sw	a0,8(sp)
   11c54:	000a8513          	mv	a0,s5
   11c58:	03212023          	sw	s2,32(sp)
   11c5c:	714020ef          	jal	14370 <__mulsf3>
   11c60:	000a8593          	mv	a1,s5
   11c64:	70c020ef          	jal	14370 <__mulsf3>
   11c68:	00050593          	mv	a1,a0
   11c6c:	00050913          	mv	s2,a0
   11c70:	00812503          	lw	a0,8(sp)
   11c74:	5c1010ef          	jal	13a34 <__addsf3>
   11c78:	00048593          	mv	a1,s1
   11c7c:	6f4020ef          	jal	14370 <__mulsf3>
   11c80:	140a0a63          	beqz	s4,11dd4 <__ieee754_logf+0x380>
   11c84:	f241a583          	lw	a1,-220(gp) # 1ca14 <__SDATA_BEGIN__+0x5c>
   11c88:	00a12423          	sw	a0,8(sp)
   11c8c:	000b0513          	mv	a0,s6
   11c90:	6e0020ef          	jal	14370 <__mulsf3>
   11c94:	f281a583          	lw	a1,-216(gp) # 1ca18 <__SDATA_BEGIN__+0x60>
   11c98:	00050493          	mv	s1,a0
   11c9c:	000b0513          	mv	a0,s6
   11ca0:	6d0020ef          	jal	14370 <__mulsf3>
   11ca4:	00812583          	lw	a1,8(sp)
   11ca8:	58d010ef          	jal	13a34 <__addsf3>
   11cac:	00050593          	mv	a1,a0
   11cb0:	00090513          	mv	a0,s2
   11cb4:	205020ef          	jal	146b8 <__subsf3>
   11cb8:	000a8593          	mv	a1,s5
   11cbc:	1fd020ef          	jal	146b8 <__subsf3>
   11cc0:	00050593          	mv	a1,a0
   11cc4:	00048513          	mv	a0,s1
   11cc8:	1f1020ef          	jal	146b8 <__subsf3>
   11ccc:	02812403          	lw	s0,40(sp)
   11cd0:	02412483          	lw	s1,36(sp)
   11cd4:	02012903          	lw	s2,32(sp)
   11cd8:	01c12983          	lw	s3,28(sp)
   11cdc:	01812a03          	lw	s4,24(sp)
   11ce0:	01412a83          	lw	s5,20(sp)
   11ce4:	01012b03          	lw	s6,16(sp)
   11ce8:	e41ff06f          	j	11b28 <__ieee754_logf+0xd4>
   11cec:	549010ef          	jal	13a34 <__addsf3>
   11cf0:	02c12083          	lw	ra,44(sp)
   11cf4:	03010113          	addi	sp,sp,48
   11cf8:	00008067          	ret
   11cfc:	f2c1a583          	lw	a1,-212(gp) # 1ca1c <__SDATA_BEGIN__+0x64>
   11d00:	000a8513          	mv	a0,s5
   11d04:	02812423          	sw	s0,40(sp)
   11d08:	02912223          	sw	s1,36(sp)
   11d0c:	664020ef          	jal	14370 <__mulsf3>
   11d10:	00050593          	mv	a1,a0
   11d14:	f301a503          	lw	a0,-208(gp) # 1ca20 <__SDATA_BEGIN__+0x68>
   11d18:	000a8413          	mv	s0,s5
   11d1c:	19d020ef          	jal	146b8 <__subsf3>
   11d20:	00050493          	mv	s1,a0
   11d24:	000a8593          	mv	a1,s5
   11d28:	000a8513          	mv	a0,s5
   11d2c:	644020ef          	jal	14370 <__mulsf3>
   11d30:	00050593          	mv	a1,a0
   11d34:	00048513          	mv	a0,s1
   11d38:	638020ef          	jal	14370 <__mulsf3>
   11d3c:	0a0a1863          	bnez	s4,11dec <__ieee754_logf+0x398>
   11d40:	00050593          	mv	a1,a0
   11d44:	00040513          	mv	a0,s0
   11d48:	171020ef          	jal	146b8 <__subsf3>
   11d4c:	02812403          	lw	s0,40(sp)
   11d50:	02412483          	lw	s1,36(sp)
   11d54:	01812a03          	lw	s4,24(sp)
   11d58:	01412a83          	lw	s5,20(sp)
   11d5c:	dcdff06f          	j	11b28 <__ieee754_logf+0xd4>
   11d60:	00050593          	mv	a1,a0
   11d64:	000a8513          	mv	a0,s5
   11d68:	151020ef          	jal	146b8 <__subsf3>
   11d6c:	00048593          	mv	a1,s1
   11d70:	600020ef          	jal	14370 <__mulsf3>
   11d74:	100a0263          	beqz	s4,11e78 <__ieee754_logf+0x424>
   11d78:	f241a583          	lw	a1,-220(gp) # 1ca14 <__SDATA_BEGIN__+0x5c>
   11d7c:	00a12423          	sw	a0,8(sp)
   11d80:	000b0513          	mv	a0,s6
   11d84:	5ec020ef          	jal	14370 <__mulsf3>
   11d88:	f281a583          	lw	a1,-216(gp) # 1ca18 <__SDATA_BEGIN__+0x60>
   11d8c:	00050493          	mv	s1,a0
   11d90:	000b0513          	mv	a0,s6
   11d94:	5dc020ef          	jal	14370 <__mulsf3>
   11d98:	00050593          	mv	a1,a0
   11d9c:	00812503          	lw	a0,8(sp)
   11da0:	119020ef          	jal	146b8 <__subsf3>
   11da4:	000a8593          	mv	a1,s5
   11da8:	111020ef          	jal	146b8 <__subsf3>
   11dac:	00050593          	mv	a1,a0
   11db0:	00048513          	mv	a0,s1
   11db4:	105020ef          	jal	146b8 <__subsf3>
   11db8:	02812403          	lw	s0,40(sp)
   11dbc:	02412483          	lw	s1,36(sp)
   11dc0:	01c12983          	lw	s3,28(sp)
   11dc4:	01812a03          	lw	s4,24(sp)
   11dc8:	01412a83          	lw	s5,20(sp)
   11dcc:	01012b03          	lw	s6,16(sp)
   11dd0:	d59ff06f          	j	11b28 <__ieee754_logf+0xd4>
   11dd4:	00050593          	mv	a1,a0
   11dd8:	00090513          	mv	a0,s2
   11ddc:	0dd020ef          	jal	146b8 <__subsf3>
   11de0:	00050593          	mv	a1,a0
   11de4:	000a8513          	mv	a0,s5
   11de8:	ee1ff06f          	j	11cc8 <__ieee754_logf+0x274>
   11dec:	00a12423          	sw	a0,8(sp)
   11df0:	000a0513          	mv	a0,s4
   11df4:	625020ef          	jal	14c18 <__floatsisf>
   11df8:	f241a583          	lw	a1,-220(gp) # 1ca14 <__SDATA_BEGIN__+0x5c>
   11dfc:	00050493          	mv	s1,a0
   11e00:	570020ef          	jal	14370 <__mulsf3>
   11e04:	f281a583          	lw	a1,-216(gp) # 1ca18 <__SDATA_BEGIN__+0x60>
   11e08:	00050413          	mv	s0,a0
   11e0c:	00048513          	mv	a0,s1
   11e10:	560020ef          	jal	14370 <__mulsf3>
   11e14:	00050593          	mv	a1,a0
   11e18:	00812503          	lw	a0,8(sp)
   11e1c:	09d020ef          	jal	146b8 <__subsf3>
   11e20:	000a8593          	mv	a1,s5
   11e24:	095020ef          	jal	146b8 <__subsf3>
   11e28:	f19ff06f          	j	11d40 <__ieee754_logf+0x2ec>
   11e2c:	000a0513          	mv	a0,s4
   11e30:	02812423          	sw	s0,40(sp)
   11e34:	02912223          	sw	s1,36(sp)
   11e38:	5e1020ef          	jal	14c18 <__floatsisf>
   11e3c:	f241a583          	lw	a1,-220(gp) # 1ca14 <__SDATA_BEGIN__+0x5c>
   11e40:	00050493          	mv	s1,a0
   11e44:	52c020ef          	jal	14370 <__mulsf3>
   11e48:	f281a583          	lw	a1,-216(gp) # 1ca18 <__SDATA_BEGIN__+0x60>
   11e4c:	00050413          	mv	s0,a0
   11e50:	00048513          	mv	a0,s1
   11e54:	51c020ef          	jal	14370 <__mulsf3>
   11e58:	00050593          	mv	a1,a0
   11e5c:	00040513          	mv	a0,s0
   11e60:	3d5010ef          	jal	13a34 <__addsf3>
   11e64:	02812403          	lw	s0,40(sp)
   11e68:	02412483          	lw	s1,36(sp)
   11e6c:	01812a03          	lw	s4,24(sp)
   11e70:	01412a83          	lw	s5,20(sp)
   11e74:	cb5ff06f          	j	11b28 <__ieee754_logf+0xd4>
   11e78:	00050593          	mv	a1,a0
   11e7c:	000a8513          	mv	a0,s5
   11e80:	f35ff06f          	j	11db4 <__ieee754_logf+0x360>

00011e84 <__adddf3>:
   11e84:	00100737          	lui	a4,0x100
   11e88:	fe010113          	addi	sp,sp,-32
   11e8c:	fff70713          	addi	a4,a4,-1 # fffff <__BSS_END__+0xe3257>
   11e90:	00b777b3          	and	a5,a4,a1
   11e94:	0146d893          	srli	a7,a3,0x14
   11e98:	00d77733          	and	a4,a4,a3
   11e9c:	00812c23          	sw	s0,24(sp)
   11ea0:	0145d413          	srli	s0,a1,0x14
   11ea4:	00371713          	slli	a4,a4,0x3
   11ea8:	01d65813          	srli	a6,a2,0x1d
   11eac:	01212823          	sw	s2,16(sp)
   11eb0:	7ff47413          	andi	s0,s0,2047
   11eb4:	01f5d913          	srli	s2,a1,0x1f
   11eb8:	00379793          	slli	a5,a5,0x3
   11ebc:	01d55593          	srli	a1,a0,0x1d
   11ec0:	7ff8f893          	andi	a7,a7,2047
   11ec4:	00112e23          	sw	ra,28(sp)
   11ec8:	00912a23          	sw	s1,20(sp)
   11ecc:	01312623          	sw	s3,12(sp)
   11ed0:	01f6d693          	srli	a3,a3,0x1f
   11ed4:	00f5e7b3          	or	a5,a1,a5
   11ed8:	00e86833          	or	a6,a6,a4
   11edc:	00351513          	slli	a0,a0,0x3
   11ee0:	00361613          	slli	a2,a2,0x3
   11ee4:	41140733          	sub	a4,s0,a7
   11ee8:	7ff00593          	li	a1,2047
   11eec:	30d91463          	bne	s2,a3,121f4 <__adddf3+0x370>
   11ef0:	10e05263          	blez	a4,11ff4 <__adddf3+0x170>
   11ef4:	02089c63          	bnez	a7,11f2c <__adddf3+0xa8>
   11ef8:	00c86733          	or	a4,a6,a2
   11efc:	02070463          	beqz	a4,11f24 <__adddf3+0xa0>
   11f00:	fff40713          	addi	a4,s0,-1
   11f04:	00071e63          	bnez	a4,11f20 <__adddf3+0x9c>
   11f08:	00c50633          	add	a2,a0,a2
   11f0c:	010787b3          	add	a5,a5,a6
   11f10:	00a63533          	sltu	a0,a2,a0
   11f14:	00a787b3          	add	a5,a5,a0
   11f18:	00100413          	li	s0,1
   11f1c:	0600006f          	j	11f7c <__adddf3+0xf8>
   11f20:	00b41c63          	bne	s0,a1,11f38 <__adddf3+0xb4>
   11f24:	00050613          	mv	a2,a0
   11f28:	1d80006f          	j	12100 <__adddf3+0x27c>
   11f2c:	feb40ce3          	beq	s0,a1,11f24 <__adddf3+0xa0>
   11f30:	008006b7          	lui	a3,0x800
   11f34:	00d86833          	or	a6,a6,a3
   11f38:	03800693          	li	a3,56
   11f3c:	0ae6c663          	blt	a3,a4,11fe8 <__adddf3+0x164>
   11f40:	01f00693          	li	a3,31
   11f44:	02000893          	li	a7,32
   11f48:	06e6c863          	blt	a3,a4,11fb8 <__adddf3+0x134>
   11f4c:	40e888b3          	sub	a7,a7,a4
   11f50:	011816b3          	sll	a3,a6,a7
   11f54:	00e655b3          	srl	a1,a2,a4
   11f58:	011618b3          	sll	a7,a2,a7
   11f5c:	00b6e6b3          	or	a3,a3,a1
   11f60:	011038b3          	snez	a7,a7
   11f64:	0116e6b3          	or	a3,a3,a7
   11f68:	00e85733          	srl	a4,a6,a4
   11f6c:	00a68633          	add	a2,a3,a0
   11f70:	00f70733          	add	a4,a4,a5
   11f74:	00d636b3          	sltu	a3,a2,a3
   11f78:	00d707b3          	add	a5,a4,a3
   11f7c:	00879713          	slli	a4,a5,0x8
   11f80:	22075663          	bgez	a4,121ac <__adddf3+0x328>
   11f84:	00140413          	addi	s0,s0,1
   11f88:	7ff00713          	li	a4,2047
   11f8c:	60e40863          	beq	s0,a4,1259c <__adddf3+0x718>
   11f90:	ff800737          	lui	a4,0xff800
   11f94:	fff70713          	addi	a4,a4,-1 # ff7fffff <__BSS_END__+0xff7e3257>
   11f98:	00e7f7b3          	and	a5,a5,a4
   11f9c:	00165713          	srli	a4,a2,0x1
   11fa0:	00167613          	andi	a2,a2,1
   11fa4:	00c76733          	or	a4,a4,a2
   11fa8:	01f79613          	slli	a2,a5,0x1f
   11fac:	00e66633          	or	a2,a2,a4
   11fb0:	0017d793          	srli	a5,a5,0x1
   11fb4:	1f80006f          	j	121ac <__adddf3+0x328>
   11fb8:	fe070693          	addi	a3,a4,-32
   11fbc:	00d856b3          	srl	a3,a6,a3
   11fc0:	00000593          	li	a1,0
   11fc4:	01170863          	beq	a4,a7,11fd4 <__adddf3+0x150>
   11fc8:	04000593          	li	a1,64
   11fcc:	40e585b3          	sub	a1,a1,a4
   11fd0:	00b815b3          	sll	a1,a6,a1
   11fd4:	00c5e5b3          	or	a1,a1,a2
   11fd8:	00b035b3          	snez	a1,a1
   11fdc:	00b6e6b3          	or	a3,a3,a1
   11fe0:	00000713          	li	a4,0
   11fe4:	f89ff06f          	j	11f6c <__adddf3+0xe8>
   11fe8:	00c866b3          	or	a3,a6,a2
   11fec:	00d036b3          	snez	a3,a3
   11ff0:	ff1ff06f          	j	11fe0 <__adddf3+0x15c>
   11ff4:	0c070263          	beqz	a4,120b8 <__adddf3+0x234>
   11ff8:	40888733          	sub	a4,a7,s0
   11ffc:	02041263          	bnez	s0,12020 <__adddf3+0x19c>
   12000:	00a7e6b3          	or	a3,a5,a0
   12004:	00068863          	beqz	a3,12014 <__adddf3+0x190>
   12008:	fff70693          	addi	a3,a4,-1
   1200c:	ee068ee3          	beqz	a3,11f08 <__adddf3+0x84>
   12010:	02b71063          	bne	a4,a1,12030 <__adddf3+0x1ac>
   12014:	00080793          	mv	a5,a6
   12018:	00070413          	mv	s0,a4
   1201c:	0e40006f          	j	12100 <__adddf3+0x27c>
   12020:	58b88663          	beq	a7,a1,125ac <__adddf3+0x728>
   12024:	008006b7          	lui	a3,0x800
   12028:	00d7e7b3          	or	a5,a5,a3
   1202c:	00070693          	mv	a3,a4
   12030:	03800713          	li	a4,56
   12034:	06d74c63          	blt	a4,a3,120ac <__adddf3+0x228>
   12038:	01f00713          	li	a4,31
   1203c:	02000313          	li	t1,32
   12040:	02d74e63          	blt	a4,a3,1207c <__adddf3+0x1f8>
   12044:	40d30333          	sub	t1,t1,a3
   12048:	00679733          	sll	a4,a5,t1
   1204c:	00d555b3          	srl	a1,a0,a3
   12050:	00651333          	sll	t1,a0,t1
   12054:	00b76733          	or	a4,a4,a1
   12058:	00603333          	snez	t1,t1
   1205c:	00676733          	or	a4,a4,t1
   12060:	00d7d6b3          	srl	a3,a5,a3
   12064:	00c70633          	add	a2,a4,a2
   12068:	010686b3          	add	a3,a3,a6
   1206c:	00e63733          	sltu	a4,a2,a4
   12070:	00e687b3          	add	a5,a3,a4
   12074:	00088413          	mv	s0,a7
   12078:	f05ff06f          	j	11f7c <__adddf3+0xf8>
   1207c:	fe068713          	addi	a4,a3,-32 # 7fffe0 <__BSS_END__+0x7e3238>
   12080:	00e7d733          	srl	a4,a5,a4
   12084:	00000593          	li	a1,0
   12088:	00668863          	beq	a3,t1,12098 <__adddf3+0x214>
   1208c:	04000593          	li	a1,64
   12090:	40d585b3          	sub	a1,a1,a3
   12094:	00b795b3          	sll	a1,a5,a1
   12098:	00a5e5b3          	or	a1,a1,a0
   1209c:	00b035b3          	snez	a1,a1
   120a0:	00b76733          	or	a4,a4,a1
   120a4:	00000693          	li	a3,0
   120a8:	fbdff06f          	j	12064 <__adddf3+0x1e0>
   120ac:	00a7e733          	or	a4,a5,a0
   120b0:	00e03733          	snez	a4,a4
   120b4:	ff1ff06f          	j	120a4 <__adddf3+0x220>
   120b8:	00140713          	addi	a4,s0,1
   120bc:	7fe77693          	andi	a3,a4,2046
   120c0:	0c069263          	bnez	a3,12184 <__adddf3+0x300>
   120c4:	00a7e733          	or	a4,a5,a0
   120c8:	0a041463          	bnez	s0,12170 <__adddf3+0x2ec>
   120cc:	4a070863          	beqz	a4,1257c <__adddf3+0x6f8>
   120d0:	00c86733          	or	a4,a6,a2
   120d4:	4a070863          	beqz	a4,12584 <__adddf3+0x700>
   120d8:	00c50633          	add	a2,a0,a2
   120dc:	010787b3          	add	a5,a5,a6
   120e0:	00a63533          	sltu	a0,a2,a0
   120e4:	00a787b3          	add	a5,a5,a0
   120e8:	00879713          	slli	a4,a5,0x8
   120ec:	32075a63          	bgez	a4,12420 <__adddf3+0x59c>
   120f0:	ff800737          	lui	a4,0xff800
   120f4:	fff70713          	addi	a4,a4,-1 # ff7fffff <__BSS_END__+0xff7e3257>
   120f8:	00e7f7b3          	and	a5,a5,a4
   120fc:	00100413          	li	s0,1
   12100:	01d79713          	slli	a4,a5,0x1d
   12104:	00365613          	srli	a2,a2,0x3
   12108:	7ff00693          	li	a3,2047
   1210c:	00c76733          	or	a4,a4,a2
   12110:	0037d793          	srli	a5,a5,0x3
   12114:	00d41e63          	bne	s0,a3,12130 <__adddf3+0x2ac>
   12118:	00f76733          	or	a4,a4,a5
   1211c:	00000793          	li	a5,0
   12120:	00070863          	beqz	a4,12130 <__adddf3+0x2ac>
   12124:	000807b7          	lui	a5,0x80
   12128:	00000713          	li	a4,0
   1212c:	00000913          	li	s2,0
   12130:	7ff47413          	andi	s0,s0,2047
   12134:	00c79793          	slli	a5,a5,0xc
   12138:	00c7d793          	srli	a5,a5,0xc
   1213c:	01441413          	slli	s0,s0,0x14
   12140:	01f91593          	slli	a1,s2,0x1f
   12144:	00f46433          	or	s0,s0,a5
   12148:	01c12083          	lw	ra,28(sp)
   1214c:	00b467b3          	or	a5,s0,a1
   12150:	01812403          	lw	s0,24(sp)
   12154:	01412483          	lw	s1,20(sp)
   12158:	01012903          	lw	s2,16(sp)
   1215c:	00c12983          	lw	s3,12(sp)
   12160:	00070513          	mv	a0,a4
   12164:	00078593          	mv	a1,a5
   12168:	02010113          	addi	sp,sp,32
   1216c:	00008067          	ret
   12170:	40070e63          	beqz	a4,1258c <__adddf3+0x708>
   12174:	00c86833          	or	a6,a6,a2
   12178:	2c081c63          	bnez	a6,12450 <__adddf3+0x5cc>
   1217c:	00050613          	mv	a2,a0
   12180:	4100006f          	j	12590 <__adddf3+0x70c>
   12184:	40b70a63          	beq	a4,a1,12598 <__adddf3+0x714>
   12188:	00c50633          	add	a2,a0,a2
   1218c:	00a63533          	sltu	a0,a2,a0
   12190:	010787b3          	add	a5,a5,a6
   12194:	00a787b3          	add	a5,a5,a0
   12198:	01f79693          	slli	a3,a5,0x1f
   1219c:	00165613          	srli	a2,a2,0x1
   121a0:	00c6e633          	or	a2,a3,a2
   121a4:	0017d793          	srli	a5,a5,0x1
   121a8:	00070413          	mv	s0,a4
   121ac:	00767713          	andi	a4,a2,7
   121b0:	02070063          	beqz	a4,121d0 <__adddf3+0x34c>
   121b4:	00f67713          	andi	a4,a2,15
   121b8:	00400693          	li	a3,4
   121bc:	00d70a63          	beq	a4,a3,121d0 <__adddf3+0x34c>
   121c0:	00d60733          	add	a4,a2,a3
   121c4:	00c736b3          	sltu	a3,a4,a2
   121c8:	00d787b3          	add	a5,a5,a3
   121cc:	00070613          	mv	a2,a4
   121d0:	00879713          	slli	a4,a5,0x8
   121d4:	f20756e3          	bgez	a4,12100 <__adddf3+0x27c>
   121d8:	00140413          	addi	s0,s0,1
   121dc:	7ff00713          	li	a4,2047
   121e0:	3ae40e63          	beq	s0,a4,1259c <__adddf3+0x718>
   121e4:	ff800737          	lui	a4,0xff800
   121e8:	fff70713          	addi	a4,a4,-1 # ff7fffff <__BSS_END__+0xff7e3257>
   121ec:	00e7f7b3          	and	a5,a5,a4
   121f0:	f11ff06f          	j	12100 <__adddf3+0x27c>
   121f4:	0ee05063          	blez	a4,122d4 <__adddf3+0x450>
   121f8:	08089863          	bnez	a7,12288 <__adddf3+0x404>
   121fc:	00c86733          	or	a4,a6,a2
   12200:	d20702e3          	beqz	a4,11f24 <__adddf3+0xa0>
   12204:	fff40713          	addi	a4,s0,-1
   12208:	00071e63          	bnez	a4,12224 <__adddf3+0x3a0>
   1220c:	40c50633          	sub	a2,a0,a2
   12210:	410787b3          	sub	a5,a5,a6
   12214:	00c53533          	sltu	a0,a0,a2
   12218:	40a787b3          	sub	a5,a5,a0
   1221c:	00100413          	li	s0,1
   12220:	04c0006f          	j	1226c <__adddf3+0x3e8>
   12224:	d0b400e3          	beq	s0,a1,11f24 <__adddf3+0xa0>
   12228:	03800693          	li	a3,56
   1222c:	08e6ce63          	blt	a3,a4,122c8 <__adddf3+0x444>
   12230:	01f00693          	li	a3,31
   12234:	02000893          	li	a7,32
   12238:	06e6c063          	blt	a3,a4,12298 <__adddf3+0x414>
   1223c:	40e888b3          	sub	a7,a7,a4
   12240:	011816b3          	sll	a3,a6,a7
   12244:	00e655b3          	srl	a1,a2,a4
   12248:	011618b3          	sll	a7,a2,a7
   1224c:	00b6e6b3          	or	a3,a3,a1
   12250:	011038b3          	snez	a7,a7
   12254:	0116e6b3          	or	a3,a3,a7
   12258:	00e85733          	srl	a4,a6,a4
   1225c:	40d50633          	sub	a2,a0,a3
   12260:	40e78733          	sub	a4,a5,a4
   12264:	00c53533          	sltu	a0,a0,a2
   12268:	40a707b3          	sub	a5,a4,a0
   1226c:	00879713          	slli	a4,a5,0x8
   12270:	f2075ee3          	bgez	a4,121ac <__adddf3+0x328>
   12274:	008004b7          	lui	s1,0x800
   12278:	fff48493          	addi	s1,s1,-1 # 7fffff <__BSS_END__+0x7e3257>
   1227c:	0097f4b3          	and	s1,a5,s1
   12280:	00060993          	mv	s3,a2
   12284:	2140006f          	j	12498 <__adddf3+0x614>
   12288:	c8b40ee3          	beq	s0,a1,11f24 <__adddf3+0xa0>
   1228c:	008006b7          	lui	a3,0x800
   12290:	00d86833          	or	a6,a6,a3
   12294:	f95ff06f          	j	12228 <__adddf3+0x3a4>
   12298:	fe070693          	addi	a3,a4,-32
   1229c:	00d856b3          	srl	a3,a6,a3
   122a0:	00000593          	li	a1,0
   122a4:	01170863          	beq	a4,a7,122b4 <__adddf3+0x430>
   122a8:	04000593          	li	a1,64
   122ac:	40e585b3          	sub	a1,a1,a4
   122b0:	00b815b3          	sll	a1,a6,a1
   122b4:	00c5e5b3          	or	a1,a1,a2
   122b8:	00b035b3          	snez	a1,a1
   122bc:	00b6e6b3          	or	a3,a3,a1
   122c0:	00000713          	li	a4,0
   122c4:	f99ff06f          	j	1225c <__adddf3+0x3d8>
   122c8:	00c866b3          	or	a3,a6,a2
   122cc:	00d036b3          	snez	a3,a3
   122d0:	ff1ff06f          	j	122c0 <__adddf3+0x43c>
   122d4:	0e070663          	beqz	a4,123c0 <__adddf3+0x53c>
   122d8:	40888333          	sub	t1,a7,s0
   122dc:	04041263          	bnez	s0,12320 <__adddf3+0x49c>
   122e0:	00a7e733          	or	a4,a5,a0
   122e4:	02070663          	beqz	a4,12310 <__adddf3+0x48c>
   122e8:	fff30713          	addi	a4,t1,-1 # 7fffffff <__BSS_END__+0x7ffe3257>
   122ec:	02071063          	bnez	a4,1230c <__adddf3+0x488>
   122f0:	40a60533          	sub	a0,a2,a0
   122f4:	00a63733          	sltu	a4,a2,a0
   122f8:	40f807b3          	sub	a5,a6,a5
   122fc:	00050613          	mv	a2,a0
   12300:	40e787b3          	sub	a5,a5,a4
   12304:	00068913          	mv	s2,a3
   12308:	f15ff06f          	j	1221c <__adddf3+0x398>
   1230c:	02b31263          	bne	t1,a1,12330 <__adddf3+0x4ac>
   12310:	00068913          	mv	s2,a3
   12314:	00080793          	mv	a5,a6
   12318:	00030413          	mv	s0,t1
   1231c:	de5ff06f          	j	12100 <__adddf3+0x27c>
   12320:	28b88463          	beq	a7,a1,125a8 <__adddf3+0x724>
   12324:	00800737          	lui	a4,0x800
   12328:	00e7e7b3          	or	a5,a5,a4
   1232c:	00030713          	mv	a4,t1
   12330:	03800593          	li	a1,56
   12334:	08e5c063          	blt	a1,a4,123b4 <__adddf3+0x530>
   12338:	01f00593          	li	a1,31
   1233c:	02000e13          	li	t3,32
   12340:	04e5c263          	blt	a1,a4,12384 <__adddf3+0x500>
   12344:	40ee0e33          	sub	t3,t3,a4
   12348:	01c795b3          	sll	a1,a5,t3
   1234c:	00e55333          	srl	t1,a0,a4
   12350:	01c51e33          	sll	t3,a0,t3
   12354:	0065e5b3          	or	a1,a1,t1
   12358:	01c03e33          	snez	t3,t3
   1235c:	01c5e5b3          	or	a1,a1,t3
   12360:	00e7d733          	srl	a4,a5,a4
   12364:	40b605b3          	sub	a1,a2,a1
   12368:	00b637b3          	sltu	a5,a2,a1
   1236c:	40e80733          	sub	a4,a6,a4
   12370:	00058613          	mv	a2,a1
   12374:	40f707b3          	sub	a5,a4,a5
   12378:	00088413          	mv	s0,a7
   1237c:	00068913          	mv	s2,a3
   12380:	eedff06f          	j	1226c <__adddf3+0x3e8>
   12384:	fe070593          	addi	a1,a4,-32 # 7fffe0 <__BSS_END__+0x7e3238>
   12388:	00b7d5b3          	srl	a1,a5,a1
   1238c:	00000313          	li	t1,0
   12390:	01c70863          	beq	a4,t3,123a0 <__adddf3+0x51c>
   12394:	04000313          	li	t1,64
   12398:	40e30333          	sub	t1,t1,a4
   1239c:	00679333          	sll	t1,a5,t1
   123a0:	00a36333          	or	t1,t1,a0
   123a4:	00603333          	snez	t1,t1
   123a8:	0065e5b3          	or	a1,a1,t1
   123ac:	00000713          	li	a4,0
   123b0:	fb5ff06f          	j	12364 <__adddf3+0x4e0>
   123b4:	00a7e5b3          	or	a1,a5,a0
   123b8:	00b035b3          	snez	a1,a1
   123bc:	ff1ff06f          	j	123ac <__adddf3+0x528>
   123c0:	00140713          	addi	a4,s0,1
   123c4:	7fe77713          	andi	a4,a4,2046
   123c8:	0a071063          	bnez	a4,12468 <__adddf3+0x5e4>
   123cc:	00a7e8b3          	or	a7,a5,a0
   123d0:	00c86733          	or	a4,a6,a2
   123d4:	06041863          	bnez	s0,12444 <__adddf3+0x5c0>
   123d8:	00089a63          	bnez	a7,123ec <__adddf3+0x568>
   123dc:	00080793          	mv	a5,a6
   123e0:	02071e63          	bnez	a4,1241c <__adddf3+0x598>
   123e4:	00000913          	li	s2,0
   123e8:	1b40006f          	j	1259c <__adddf3+0x718>
   123ec:	18070c63          	beqz	a4,12584 <__adddf3+0x700>
   123f0:	40c505b3          	sub	a1,a0,a2
   123f4:	00b538b3          	sltu	a7,a0,a1
   123f8:	41078733          	sub	a4,a5,a6
   123fc:	41170733          	sub	a4,a4,a7
   12400:	00871893          	slli	a7,a4,0x8
   12404:	0208d663          	bgez	a7,12430 <__adddf3+0x5ac>
   12408:	40a60533          	sub	a0,a2,a0
   1240c:	00a63733          	sltu	a4,a2,a0
   12410:	40f807b3          	sub	a5,a6,a5
   12414:	00050613          	mv	a2,a0
   12418:	40e787b3          	sub	a5,a5,a4
   1241c:	00068913          	mv	s2,a3
   12420:	00f66733          	or	a4,a2,a5
   12424:	1a070063          	beqz	a4,125c4 <__adddf3+0x740>
   12428:	00000413          	li	s0,0
   1242c:	d81ff06f          	j	121ac <__adddf3+0x328>
   12430:	00e5e633          	or	a2,a1,a4
   12434:	18060263          	beqz	a2,125b8 <__adddf3+0x734>
   12438:	00070793          	mv	a5,a4
   1243c:	00058613          	mv	a2,a1
   12440:	fe1ff06f          	j	12420 <__adddf3+0x59c>
   12444:	00089e63          	bnez	a7,12460 <__adddf3+0x5dc>
   12448:	00068913          	mv	s2,a3
   1244c:	14071063          	bnez	a4,1258c <__adddf3+0x708>
   12450:	00000913          	li	s2,0
   12454:	004007b7          	lui	a5,0x400
   12458:	00000613          	li	a2,0
   1245c:	1340006f          	j	12590 <__adddf3+0x70c>
   12460:	d0070ee3          	beqz	a4,1217c <__adddf3+0x2f8>
   12464:	fedff06f          	j	12450 <__adddf3+0x5cc>
   12468:	40c50733          	sub	a4,a0,a2
   1246c:	00e535b3          	sltu	a1,a0,a4
   12470:	410784b3          	sub	s1,a5,a6
   12474:	40b484b3          	sub	s1,s1,a1
   12478:	00849593          	slli	a1,s1,0x8
   1247c:	00070993          	mv	s3,a4
   12480:	0605de63          	bgez	a1,124fc <__adddf3+0x678>
   12484:	40a609b3          	sub	s3,a2,a0
   12488:	40f804b3          	sub	s1,a6,a5
   1248c:	01363633          	sltu	a2,a2,s3
   12490:	40c484b3          	sub	s1,s1,a2
   12494:	00068913          	mv	s2,a3
   12498:	06048e63          	beqz	s1,12514 <__adddf3+0x690>
   1249c:	00048513          	mv	a0,s1
   124a0:	261020ef          	jal	14f00 <__clzsi2>
   124a4:	ff850713          	addi	a4,a0,-8 # 3f7ffff8 <__BSS_END__+0x3f7e3250>
   124a8:	02000793          	li	a5,32
   124ac:	40e787b3          	sub	a5,a5,a4
   124b0:	00e494b3          	sll	s1,s1,a4
   124b4:	00f9d7b3          	srl	a5,s3,a5
   124b8:	0097e7b3          	or	a5,a5,s1
   124bc:	00e99633          	sll	a2,s3,a4
   124c0:	0a874463          	blt	a4,s0,12568 <__adddf3+0x6e4>
   124c4:	40870733          	sub	a4,a4,s0
   124c8:	00170513          	addi	a0,a4,1
   124cc:	01f00693          	li	a3,31
   124d0:	02000593          	li	a1,32
   124d4:	06a6c263          	blt	a3,a0,12538 <__adddf3+0x6b4>
   124d8:	40a585b3          	sub	a1,a1,a0
   124dc:	00b79733          	sll	a4,a5,a1
   124e0:	00a656b3          	srl	a3,a2,a0
   124e4:	00b615b3          	sll	a1,a2,a1
   124e8:	00d76733          	or	a4,a4,a3
   124ec:	00b035b3          	snez	a1,a1
   124f0:	00b76633          	or	a2,a4,a1
   124f4:	00a7d7b3          	srl	a5,a5,a0
   124f8:	f29ff06f          	j	12420 <__adddf3+0x59c>
   124fc:	00976633          	or	a2,a4,s1
   12500:	f8061ce3          	bnez	a2,12498 <__adddf3+0x614>
   12504:	00000913          	li	s2,0
   12508:	00000793          	li	a5,0
   1250c:	00000413          	li	s0,0
   12510:	bf1ff06f          	j	12100 <__adddf3+0x27c>
   12514:	00098513          	mv	a0,s3
   12518:	1e9020ef          	jal	14f00 <__clzsi2>
   1251c:	01850713          	addi	a4,a0,24
   12520:	01f00793          	li	a5,31
   12524:	f8e7d2e3          	bge	a5,a4,124a8 <__adddf3+0x624>
   12528:	ff850793          	addi	a5,a0,-8
   1252c:	00f997b3          	sll	a5,s3,a5
   12530:	00000613          	li	a2,0
   12534:	f8dff06f          	j	124c0 <__adddf3+0x63c>
   12538:	fe170713          	addi	a4,a4,-31
   1253c:	00e7d733          	srl	a4,a5,a4
   12540:	00000693          	li	a3,0
   12544:	00b50863          	beq	a0,a1,12554 <__adddf3+0x6d0>
   12548:	04000693          	li	a3,64
   1254c:	40a686b3          	sub	a3,a3,a0
   12550:	00d796b3          	sll	a3,a5,a3
   12554:	00d666b3          	or	a3,a2,a3
   12558:	00d036b3          	snez	a3,a3
   1255c:	00d76633          	or	a2,a4,a3
   12560:	00000793          	li	a5,0
   12564:	ebdff06f          	j	12420 <__adddf3+0x59c>
   12568:	40e40433          	sub	s0,s0,a4
   1256c:	ff800737          	lui	a4,0xff800
   12570:	fff70713          	addi	a4,a4,-1 # ff7fffff <__BSS_END__+0xff7e3257>
   12574:	00e7f7b3          	and	a5,a5,a4
   12578:	c35ff06f          	j	121ac <__adddf3+0x328>
   1257c:	00080793          	mv	a5,a6
   12580:	ea1ff06f          	j	12420 <__adddf3+0x59c>
   12584:	00050613          	mv	a2,a0
   12588:	e99ff06f          	j	12420 <__adddf3+0x59c>
   1258c:	00080793          	mv	a5,a6
   12590:	00058413          	mv	s0,a1
   12594:	b6dff06f          	j	12100 <__adddf3+0x27c>
   12598:	00070413          	mv	s0,a4
   1259c:	00000793          	li	a5,0
   125a0:	00000613          	li	a2,0
   125a4:	b5dff06f          	j	12100 <__adddf3+0x27c>
   125a8:	00068913          	mv	s2,a3
   125ac:	00080793          	mv	a5,a6
   125b0:	00088413          	mv	s0,a7
   125b4:	b4dff06f          	j	12100 <__adddf3+0x27c>
   125b8:	00000913          	li	s2,0
   125bc:	00000793          	li	a5,0
   125c0:	b41ff06f          	j	12100 <__adddf3+0x27c>
   125c4:	00000793          	li	a5,0
   125c8:	00000613          	li	a2,0
   125cc:	f41ff06f          	j	1250c <__adddf3+0x688>

000125d0 <__divdf3>:
   125d0:	fb010113          	addi	sp,sp,-80
   125d4:	03512a23          	sw	s5,52(sp)
   125d8:	0145da93          	srli	s5,a1,0x14
   125dc:	04812423          	sw	s0,72(sp)
   125e0:	05212023          	sw	s2,64(sp)
   125e4:	03312e23          	sw	s3,60(sp)
   125e8:	03412c23          	sw	s4,56(sp)
   125ec:	03712623          	sw	s7,44(sp)
   125f0:	00c59413          	slli	s0,a1,0xc
   125f4:	04112623          	sw	ra,76(sp)
   125f8:	04912223          	sw	s1,68(sp)
   125fc:	03612823          	sw	s6,48(sp)
   12600:	03812423          	sw	s8,40(sp)
   12604:	03912223          	sw	s9,36(sp)
   12608:	03a12023          	sw	s10,32(sp)
   1260c:	01b12e23          	sw	s11,28(sp)
   12610:	7ffafa93          	andi	s5,s5,2047
   12614:	00050913          	mv	s2,a0
   12618:	00060b93          	mv	s7,a2
   1261c:	00068a13          	mv	s4,a3
   12620:	00c45413          	srli	s0,s0,0xc
   12624:	01f5d993          	srli	s3,a1,0x1f
   12628:	0a0a8063          	beqz	s5,126c8 <__divdf3+0xf8>
   1262c:	7ff00793          	li	a5,2047
   12630:	10fa8063          	beq	s5,a5,12730 <__divdf3+0x160>
   12634:	01d55c93          	srli	s9,a0,0x1d
   12638:	00341413          	slli	s0,s0,0x3
   1263c:	008cecb3          	or	s9,s9,s0
   12640:	008007b7          	lui	a5,0x800
   12644:	00fcecb3          	or	s9,s9,a5
   12648:	00351493          	slli	s1,a0,0x3
   1264c:	c01a8a93          	addi	s5,s5,-1023
   12650:	00000b13          	li	s6,0
   12654:	014a5793          	srli	a5,s4,0x14
   12658:	00ca1413          	slli	s0,s4,0xc
   1265c:	7ff7f793          	andi	a5,a5,2047
   12660:	00c45413          	srli	s0,s0,0xc
   12664:	01fa5a13          	srli	s4,s4,0x1f
   12668:	0e078e63          	beqz	a5,12764 <__divdf3+0x194>
   1266c:	7ff00713          	li	a4,2047
   12670:	16e78263          	beq	a5,a4,127d4 <__divdf3+0x204>
   12674:	00341413          	slli	s0,s0,0x3
   12678:	01dbd713          	srli	a4,s7,0x1d
   1267c:	00876733          	or	a4,a4,s0
   12680:	00800437          	lui	s0,0x800
   12684:	00876433          	or	s0,a4,s0
   12688:	003b9593          	slli	a1,s7,0x3
   1268c:	c0178793          	addi	a5,a5,-1023 # 7ffc01 <__BSS_END__+0x7e2e59>
   12690:	00000713          	li	a4,0
   12694:	40fa8ab3          	sub	s5,s5,a5
   12698:	002b1793          	slli	a5,s6,0x2
   1269c:	00e7e7b3          	or	a5,a5,a4
   126a0:	fff78793          	addi	a5,a5,-1
   126a4:	00e00693          	li	a3,14
   126a8:	0149c933          	xor	s2,s3,s4
   126ac:	14f6ec63          	bltu	a3,a5,12804 <__divdf3+0x234>
   126b0:	0001b6b7          	lui	a3,0x1b
   126b4:	00279793          	slli	a5,a5,0x2
   126b8:	a7468693          	addi	a3,a3,-1420 # 1aa74 <_exit+0x240>
   126bc:	00d787b3          	add	a5,a5,a3
   126c0:	0007a783          	lw	a5,0(a5)
   126c4:	00078067          	jr	a5
   126c8:	00a46cb3          	or	s9,s0,a0
   126cc:	060c8c63          	beqz	s9,12744 <__divdf3+0x174>
   126d0:	04040063          	beqz	s0,12710 <__divdf3+0x140>
   126d4:	00040513          	mv	a0,s0
   126d8:	029020ef          	jal	14f00 <__clzsi2>
   126dc:	00050793          	mv	a5,a0
   126e0:	ff550713          	addi	a4,a0,-11
   126e4:	01d00c93          	li	s9,29
   126e8:	ff878693          	addi	a3,a5,-8
   126ec:	40ec8cb3          	sub	s9,s9,a4
   126f0:	00d41433          	sll	s0,s0,a3
   126f4:	01995cb3          	srl	s9,s2,s9
   126f8:	008cecb3          	or	s9,s9,s0
   126fc:	00d91433          	sll	s0,s2,a3
   12700:	c0d00a93          	li	s5,-1011
   12704:	40fa8ab3          	sub	s5,s5,a5
   12708:	00040493          	mv	s1,s0
   1270c:	f45ff06f          	j	12650 <__divdf3+0x80>
   12710:	7f0020ef          	jal	14f00 <__clzsi2>
   12714:	01550713          	addi	a4,a0,21
   12718:	01c00693          	li	a3,28
   1271c:	02050793          	addi	a5,a0,32
   12720:	fce6d2e3          	bge	a3,a4,126e4 <__divdf3+0x114>
   12724:	ff850513          	addi	a0,a0,-8
   12728:	00a91cb3          	sll	s9,s2,a0
   1272c:	fd5ff06f          	j	12700 <__divdf3+0x130>
   12730:	00a46cb3          	or	s9,s0,a0
   12734:	020c9063          	bnez	s9,12754 <__divdf3+0x184>
   12738:	00000493          	li	s1,0
   1273c:	00200b13          	li	s6,2
   12740:	f15ff06f          	j	12654 <__divdf3+0x84>
   12744:	00000493          	li	s1,0
   12748:	00000a93          	li	s5,0
   1274c:	00100b13          	li	s6,1
   12750:	f05ff06f          	j	12654 <__divdf3+0x84>
   12754:	00050493          	mv	s1,a0
   12758:	00040c93          	mv	s9,s0
   1275c:	00300b13          	li	s6,3
   12760:	ef5ff06f          	j	12654 <__divdf3+0x84>
   12764:	017465b3          	or	a1,s0,s7
   12768:	08058063          	beqz	a1,127e8 <__divdf3+0x218>
   1276c:	04040263          	beqz	s0,127b0 <__divdf3+0x1e0>
   12770:	00040513          	mv	a0,s0
   12774:	78c020ef          	jal	14f00 <__clzsi2>
   12778:	00050693          	mv	a3,a0
   1277c:	ff550793          	addi	a5,a0,-11
   12780:	01d00713          	li	a4,29
   12784:	ff868613          	addi	a2,a3,-8
   12788:	40f70733          	sub	a4,a4,a5
   1278c:	00c41433          	sll	s0,s0,a2
   12790:	00ebd733          	srl	a4,s7,a4
   12794:	00876733          	or	a4,a4,s0
   12798:	00cb9433          	sll	s0,s7,a2
   1279c:	c0d00793          	li	a5,-1011
   127a0:	00040593          	mv	a1,s0
   127a4:	40d787b3          	sub	a5,a5,a3
   127a8:	00070413          	mv	s0,a4
   127ac:	ee5ff06f          	j	12690 <__divdf3+0xc0>
   127b0:	000b8513          	mv	a0,s7
   127b4:	74c020ef          	jal	14f00 <__clzsi2>
   127b8:	01550793          	addi	a5,a0,21
   127bc:	01c00713          	li	a4,28
   127c0:	02050693          	addi	a3,a0,32
   127c4:	faf75ee3          	bge	a4,a5,12780 <__divdf3+0x1b0>
   127c8:	ff850713          	addi	a4,a0,-8
   127cc:	00eb9733          	sll	a4,s7,a4
   127d0:	fcdff06f          	j	1279c <__divdf3+0x1cc>
   127d4:	017465b3          	or	a1,s0,s7
   127d8:	02059063          	bnez	a1,127f8 <__divdf3+0x228>
   127dc:	00000413          	li	s0,0
   127e0:	00200713          	li	a4,2
   127e4:	eb1ff06f          	j	12694 <__divdf3+0xc4>
   127e8:	00000413          	li	s0,0
   127ec:	00000793          	li	a5,0
   127f0:	00100713          	li	a4,1
   127f4:	ea1ff06f          	j	12694 <__divdf3+0xc4>
   127f8:	000b8593          	mv	a1,s7
   127fc:	00300713          	li	a4,3
   12800:	e95ff06f          	j	12694 <__divdf3+0xc4>
   12804:	01946663          	bltu	s0,s9,12810 <__divdf3+0x240>
   12808:	408c9a63          	bne	s9,s0,12c1c <__divdf3+0x64c>
   1280c:	40b4e863          	bltu	s1,a1,12c1c <__divdf3+0x64c>
   12810:	01fc9713          	slli	a4,s9,0x1f
   12814:	0014d793          	srli	a5,s1,0x1
   12818:	01f49c13          	slli	s8,s1,0x1f
   1281c:	001cdc93          	srli	s9,s9,0x1
   12820:	00f764b3          	or	s1,a4,a5
   12824:	00841793          	slli	a5,s0,0x8
   12828:	0185db13          	srli	s6,a1,0x18
   1282c:	00fb6b33          	or	s6,s6,a5
   12830:	0107dd13          	srli	s10,a5,0x10
   12834:	010b1793          	slli	a5,s6,0x10
   12838:	0107d793          	srli	a5,a5,0x10
   1283c:	00859b93          	slli	s7,a1,0x8
   12840:	000c8513          	mv	a0,s9
   12844:	000d0593          	mv	a1,s10
   12848:	00f12623          	sw	a5,12(sp)
   1284c:	590020ef          	jal	14ddc <__hidden___udivsi3>
   12850:	00050593          	mv	a1,a0
   12854:	00050a13          	mv	s4,a0
   12858:	010b1513          	slli	a0,s6,0x10
   1285c:	01055513          	srli	a0,a0,0x10
   12860:	4c4020ef          	jal	14d24 <__mulsi3>
   12864:	00050993          	mv	s3,a0
   12868:	000d0593          	mv	a1,s10
   1286c:	000c8513          	mv	a0,s9
   12870:	5b4020ef          	jal	14e24 <__umodsi3>
   12874:	01051513          	slli	a0,a0,0x10
   12878:	0104d793          	srli	a5,s1,0x10
   1287c:	00a7e7b3          	or	a5,a5,a0
   12880:	0137fa63          	bgeu	a5,s3,12894 <__divdf3+0x2c4>
   12884:	00fb07b3          	add	a5,s6,a5
   12888:	0167e463          	bltu	a5,s6,12890 <__divdf3+0x2c0>
   1288c:	3937ee63          	bltu	a5,s3,12c28 <__divdf3+0x658>
   12890:	fffa0a13          	addi	s4,s4,-1
   12894:	413789b3          	sub	s3,a5,s3
   12898:	000d0593          	mv	a1,s10
   1289c:	00098513          	mv	a0,s3
   128a0:	53c020ef          	jal	14ddc <__hidden___udivsi3>
   128a4:	00050593          	mv	a1,a0
   128a8:	00050413          	mv	s0,a0
   128ac:	010b1513          	slli	a0,s6,0x10
   128b0:	01055513          	srli	a0,a0,0x10
   128b4:	470020ef          	jal	14d24 <__mulsi3>
   128b8:	00050c93          	mv	s9,a0
   128bc:	000d0593          	mv	a1,s10
   128c0:	00098513          	mv	a0,s3
   128c4:	560020ef          	jal	14e24 <__umodsi3>
   128c8:	01049993          	slli	s3,s1,0x10
   128cc:	01051513          	slli	a0,a0,0x10
   128d0:	0109d993          	srli	s3,s3,0x10
   128d4:	00a9e9b3          	or	s3,s3,a0
   128d8:	0199fa63          	bgeu	s3,s9,128ec <__divdf3+0x31c>
   128dc:	013b09b3          	add	s3,s6,s3
   128e0:	0199f463          	bgeu	s3,s9,128e8 <__divdf3+0x318>
   128e4:	3569f863          	bgeu	s3,s6,12c34 <__divdf3+0x664>
   128e8:	fff40413          	addi	s0,s0,-1 # 7fffff <__BSS_END__+0x7e3257>
   128ec:	010a1513          	slli	a0,s4,0x10
   128f0:	00856733          	or	a4,a0,s0
   128f4:	010b9693          	slli	a3,s7,0x10
   128f8:	0106d693          	srli	a3,a3,0x10
   128fc:	01071513          	slli	a0,a4,0x10
   12900:	419989b3          	sub	s3,s3,s9
   12904:	010bdd93          	srli	s11,s7,0x10
   12908:	01055513          	srli	a0,a0,0x10
   1290c:	00d12623          	sw	a3,12(sp)
   12910:	00068593          	mv	a1,a3
   12914:	410020ef          	jal	14d24 <__mulsi3>
   12918:	00050813          	mv	a6,a0
   1291c:	01071513          	slli	a0,a4,0x10
   12920:	01055513          	srli	a0,a0,0x10
   12924:	000d8593          	mv	a1,s11
   12928:	3fc020ef          	jal	14d24 <__mulsi3>
   1292c:	010b9593          	slli	a1,s7,0x10
   12930:	00050793          	mv	a5,a0
   12934:	0105d593          	srli	a1,a1,0x10
   12938:	01075513          	srli	a0,a4,0x10
   1293c:	3e8020ef          	jal	14d24 <__mulsi3>
   12940:	00050893          	mv	a7,a0
   12944:	000d8593          	mv	a1,s11
   12948:	01075513          	srli	a0,a4,0x10
   1294c:	3d8020ef          	jal	14d24 <__mulsi3>
   12950:	01085a13          	srli	s4,a6,0x10
   12954:	011787b3          	add	a5,a5,a7
   12958:	00fa0a33          	add	s4,s4,a5
   1295c:	011a7663          	bgeu	s4,a7,12968 <__divdf3+0x398>
   12960:	000107b7          	lui	a5,0x10
   12964:	00f50533          	add	a0,a0,a5
   12968:	010a5793          	srli	a5,s4,0x10
   1296c:	01081813          	slli	a6,a6,0x10
   12970:	010a1a13          	slli	s4,s4,0x10
   12974:	01085813          	srli	a6,a6,0x10
   12978:	00a78533          	add	a0,a5,a0
   1297c:	010a0a33          	add	s4,s4,a6
   12980:	00a9e663          	bltu	s3,a0,1298c <__divdf3+0x3bc>
   12984:	2aa99e63          	bne	s3,a0,12c40 <__divdf3+0x670>
   12988:	2b4c7c63          	bgeu	s8,s4,12c40 <__divdf3+0x670>
   1298c:	017c07b3          	add	a5,s8,s7
   12990:	0187b6b3          	sltu	a3,a5,s8
   12994:	01668633          	add	a2,a3,s6
   12998:	00c989b3          	add	s3,s3,a2
   1299c:	fff70413          	addi	s0,a4,-1
   129a0:	00078c13          	mv	s8,a5
   129a4:	013b6663          	bltu	s6,s3,129b0 <__divdf3+0x3e0>
   129a8:	02069463          	bnez	a3,129d0 <__divdf3+0x400>
   129ac:	033b1263          	bne	s6,s3,129d0 <__divdf3+0x400>
   129b0:	00a9e663          	bltu	s3,a0,129bc <__divdf3+0x3ec>
   129b4:	01351e63          	bne	a0,s3,129d0 <__divdf3+0x400>
   129b8:	0147fc63          	bgeu	a5,s4,129d0 <__divdf3+0x400>
   129bc:	00fb8c33          	add	s8,s7,a5
   129c0:	017c37b3          	sltu	a5,s8,s7
   129c4:	016787b3          	add	a5,a5,s6
   129c8:	ffe70413          	addi	s0,a4,-2
   129cc:	00f989b3          	add	s3,s3,a5
   129d0:	414c0a33          	sub	s4,s8,s4
   129d4:	40a989b3          	sub	s3,s3,a0
   129d8:	014c37b3          	sltu	a5,s8,s4
   129dc:	40f989b3          	sub	s3,s3,a5
   129e0:	fff00593          	li	a1,-1
   129e4:	193b0263          	beq	s6,s3,12b68 <__divdf3+0x598>
   129e8:	000d0593          	mv	a1,s10
   129ec:	00098513          	mv	a0,s3
   129f0:	3ec020ef          	jal	14ddc <__hidden___udivsi3>
   129f4:	00050593          	mv	a1,a0
   129f8:	00050493          	mv	s1,a0
   129fc:	010b1513          	slli	a0,s6,0x10
   12a00:	01055513          	srli	a0,a0,0x10
   12a04:	320020ef          	jal	14d24 <__mulsi3>
   12a08:	00050c13          	mv	s8,a0
   12a0c:	000d0593          	mv	a1,s10
   12a10:	00098513          	mv	a0,s3
   12a14:	410020ef          	jal	14e24 <__umodsi3>
   12a18:	01051513          	slli	a0,a0,0x10
   12a1c:	010a5713          	srli	a4,s4,0x10
   12a20:	00a76733          	or	a4,a4,a0
   12a24:	01877a63          	bgeu	a4,s8,12a38 <__divdf3+0x468>
   12a28:	00eb0733          	add	a4,s6,a4
   12a2c:	01676463          	bltu	a4,s6,12a34 <__divdf3+0x464>
   12a30:	21876c63          	bltu	a4,s8,12c48 <__divdf3+0x678>
   12a34:	fff48493          	addi	s1,s1,-1
   12a38:	418709b3          	sub	s3,a4,s8
   12a3c:	000d0593          	mv	a1,s10
   12a40:	00098513          	mv	a0,s3
   12a44:	398020ef          	jal	14ddc <__hidden___udivsi3>
   12a48:	00050593          	mv	a1,a0
   12a4c:	00050c13          	mv	s8,a0
   12a50:	010b1513          	slli	a0,s6,0x10
   12a54:	01055513          	srli	a0,a0,0x10
   12a58:	2cc020ef          	jal	14d24 <__mulsi3>
   12a5c:	00050c93          	mv	s9,a0
   12a60:	000d0593          	mv	a1,s10
   12a64:	00098513          	mv	a0,s3
   12a68:	3bc020ef          	jal	14e24 <__umodsi3>
   12a6c:	010a1793          	slli	a5,s4,0x10
   12a70:	01051513          	slli	a0,a0,0x10
   12a74:	0107d793          	srli	a5,a5,0x10
   12a78:	00a7e7b3          	or	a5,a5,a0
   12a7c:	0197fa63          	bgeu	a5,s9,12a90 <__divdf3+0x4c0>
   12a80:	00fb07b3          	add	a5,s6,a5
   12a84:	0197f463          	bgeu	a5,s9,12a8c <__divdf3+0x4bc>
   12a88:	1d67f663          	bgeu	a5,s6,12c54 <__divdf3+0x684>
   12a8c:	fffc0c13          	addi	s8,s8,-1
   12a90:	01049713          	slli	a4,s1,0x10
   12a94:	01876733          	or	a4,a4,s8
   12a98:	01071513          	slli	a0,a4,0x10
   12a9c:	010b9593          	slli	a1,s7,0x10
   12aa0:	419787b3          	sub	a5,a5,s9
   12aa4:	01055513          	srli	a0,a0,0x10
   12aa8:	0105d593          	srli	a1,a1,0x10
   12aac:	278020ef          	jal	14d24 <__mulsi3>
   12ab0:	00050813          	mv	a6,a0
   12ab4:	01071513          	slli	a0,a4,0x10
   12ab8:	01055513          	srli	a0,a0,0x10
   12abc:	000d8593          	mv	a1,s11
   12ac0:	264020ef          	jal	14d24 <__mulsi3>
   12ac4:	010b9593          	slli	a1,s7,0x10
   12ac8:	00050893          	mv	a7,a0
   12acc:	0105d593          	srli	a1,a1,0x10
   12ad0:	01075513          	srli	a0,a4,0x10
   12ad4:	250020ef          	jal	14d24 <__mulsi3>
   12ad8:	00050313          	mv	t1,a0
   12adc:	000d8593          	mv	a1,s11
   12ae0:	01075513          	srli	a0,a4,0x10
   12ae4:	240020ef          	jal	14d24 <__mulsi3>
   12ae8:	01085693          	srli	a3,a6,0x10
   12aec:	006888b3          	add	a7,a7,t1
   12af0:	011686b3          	add	a3,a3,a7
   12af4:	0066f663          	bgeu	a3,t1,12b00 <__divdf3+0x530>
   12af8:	00010637          	lui	a2,0x10
   12afc:	00c50533          	add	a0,a0,a2
   12b00:	0106d613          	srli	a2,a3,0x10
   12b04:	01081813          	slli	a6,a6,0x10
   12b08:	01069693          	slli	a3,a3,0x10
   12b0c:	01085813          	srli	a6,a6,0x10
   12b10:	00a60533          	add	a0,a2,a0
   12b14:	010686b3          	add	a3,a3,a6
   12b18:	00a7e663          	bltu	a5,a0,12b24 <__divdf3+0x554>
   12b1c:	04a79463          	bne	a5,a0,12b64 <__divdf3+0x594>
   12b20:	14068063          	beqz	a3,12c60 <__divdf3+0x690>
   12b24:	00fb0633          	add	a2,s6,a5
   12b28:	fff70593          	addi	a1,a4,-1
   12b2c:	00060793          	mv	a5,a2
   12b30:	03666463          	bltu	a2,s6,12b58 <__divdf3+0x588>
   12b34:	00a66663          	bltu	a2,a0,12b40 <__divdf3+0x570>
   12b38:	02a61463          	bne	a2,a0,12b60 <__divdf3+0x590>
   12b3c:	00dbfe63          	bgeu	s7,a3,12b58 <__divdf3+0x588>
   12b40:	ffe70593          	addi	a1,a4,-2
   12b44:	001b9713          	slli	a4,s7,0x1
   12b48:	017737b3          	sltu	a5,a4,s7
   12b4c:	016787b3          	add	a5,a5,s6
   12b50:	00f607b3          	add	a5,a2,a5
   12b54:	00070b93          	mv	s7,a4
   12b58:	00db9463          	bne	s7,a3,12b60 <__divdf3+0x590>
   12b5c:	00a78663          	beq	a5,a0,12b68 <__divdf3+0x598>
   12b60:	00058713          	mv	a4,a1
   12b64:	00176593          	ori	a1,a4,1
   12b68:	3ffa8793          	addi	a5,s5,1023
   12b6c:	12f05e63          	blez	a5,12ca8 <__divdf3+0x6d8>
   12b70:	0075f713          	andi	a4,a1,7
   12b74:	02070063          	beqz	a4,12b94 <__divdf3+0x5c4>
   12b78:	00f5f713          	andi	a4,a1,15
   12b7c:	00400693          	li	a3,4
   12b80:	00d70a63          	beq	a4,a3,12b94 <__divdf3+0x5c4>
   12b84:	00d58733          	add	a4,a1,a3
   12b88:	00b736b3          	sltu	a3,a4,a1
   12b8c:	00d40433          	add	s0,s0,a3
   12b90:	00070593          	mv	a1,a4
   12b94:	00741713          	slli	a4,s0,0x7
   12b98:	00075a63          	bgez	a4,12bac <__divdf3+0x5dc>
   12b9c:	ff0007b7          	lui	a5,0xff000
   12ba0:	fff78793          	addi	a5,a5,-1 # feffffff <__BSS_END__+0xfefe3257>
   12ba4:	00f47433          	and	s0,s0,a5
   12ba8:	400a8793          	addi	a5,s5,1024
   12bac:	7fe00713          	li	a4,2046
   12bb0:	1cf74263          	blt	a4,a5,12d74 <__divdf3+0x7a4>
   12bb4:	01d41713          	slli	a4,s0,0x1d
   12bb8:	0035d593          	srli	a1,a1,0x3
   12bbc:	00b76733          	or	a4,a4,a1
   12bc0:	00345413          	srli	s0,s0,0x3
   12bc4:	00c41413          	slli	s0,s0,0xc
   12bc8:	00c45413          	srli	s0,s0,0xc
   12bcc:	01479793          	slli	a5,a5,0x14
   12bd0:	04c12083          	lw	ra,76(sp)
   12bd4:	0087e7b3          	or	a5,a5,s0
   12bd8:	04812403          	lw	s0,72(sp)
   12bdc:	01f91913          	slli	s2,s2,0x1f
   12be0:	04412483          	lw	s1,68(sp)
   12be4:	03c12983          	lw	s3,60(sp)
   12be8:	03812a03          	lw	s4,56(sp)
   12bec:	03412a83          	lw	s5,52(sp)
   12bf0:	03012b03          	lw	s6,48(sp)
   12bf4:	02c12b83          	lw	s7,44(sp)
   12bf8:	02812c03          	lw	s8,40(sp)
   12bfc:	02412c83          	lw	s9,36(sp)
   12c00:	02012d03          	lw	s10,32(sp)
   12c04:	01c12d83          	lw	s11,28(sp)
   12c08:	0127e5b3          	or	a1,a5,s2
   12c0c:	00070513          	mv	a0,a4
   12c10:	04012903          	lw	s2,64(sp)
   12c14:	05010113          	addi	sp,sp,80
   12c18:	00008067          	ret
   12c1c:	fffa8a93          	addi	s5,s5,-1
   12c20:	00000c13          	li	s8,0
   12c24:	c01ff06f          	j	12824 <__divdf3+0x254>
   12c28:	ffea0a13          	addi	s4,s4,-2
   12c2c:	016787b3          	add	a5,a5,s6
   12c30:	c65ff06f          	j	12894 <__divdf3+0x2c4>
   12c34:	ffe40413          	addi	s0,s0,-2
   12c38:	016989b3          	add	s3,s3,s6
   12c3c:	cb1ff06f          	j	128ec <__divdf3+0x31c>
   12c40:	00070413          	mv	s0,a4
   12c44:	d8dff06f          	j	129d0 <__divdf3+0x400>
   12c48:	ffe48493          	addi	s1,s1,-2
   12c4c:	01670733          	add	a4,a4,s6
   12c50:	de9ff06f          	j	12a38 <__divdf3+0x468>
   12c54:	ffec0c13          	addi	s8,s8,-2
   12c58:	016787b3          	add	a5,a5,s6
   12c5c:	e35ff06f          	j	12a90 <__divdf3+0x4c0>
   12c60:	00000b93          	li	s7,0
   12c64:	00070593          	mv	a1,a4
   12c68:	ef1ff06f          	j	12b58 <__divdf3+0x588>
   12c6c:	000a0913          	mv	s2,s4
   12c70:	00070b13          	mv	s6,a4
   12c74:	00200793          	li	a5,2
   12c78:	0efb0e63          	beq	s6,a5,12d74 <__divdf3+0x7a4>
   12c7c:	00300793          	li	a5,3
   12c80:	0efb0063          	beq	s6,a5,12d60 <__divdf3+0x790>
   12c84:	00100793          	li	a5,1
   12c88:	eefb10e3          	bne	s6,a5,12b68 <__divdf3+0x598>
   12c8c:	00000413          	li	s0,0
   12c90:	00000713          	li	a4,0
   12c94:	08c0006f          	j	12d20 <__divdf3+0x750>
   12c98:	00098913          	mv	s2,s3
   12c9c:	000c8413          	mv	s0,s9
   12ca0:	00048593          	mv	a1,s1
   12ca4:	fd1ff06f          	j	12c74 <__divdf3+0x6a4>
   12ca8:	08078063          	beqz	a5,12d28 <__divdf3+0x758>
   12cac:	fc900713          	li	a4,-55
   12cb0:	fce7cee3          	blt	a5,a4,12c8c <__divdf3+0x6bc>
   12cb4:	fe200713          	li	a4,-30
   12cb8:	06e7cc63          	blt	a5,a4,12d30 <__divdf3+0x760>
   12cbc:	00100713          	li	a4,1
   12cc0:	40f70733          	sub	a4,a4,a5
   12cc4:	41ea8a93          	addi	s5,s5,1054
   12cc8:	00e5d7b3          	srl	a5,a1,a4
   12ccc:	015595b3          	sll	a1,a1,s5
   12cd0:	00b035b3          	snez	a1,a1
   12cd4:	01541ab3          	sll	s5,s0,s5
   12cd8:	0155e5b3          	or	a1,a1,s5
   12cdc:	00b7e7b3          	or	a5,a5,a1
   12ce0:	00e45433          	srl	s0,s0,a4
   12ce4:	0077f713          	andi	a4,a5,7
   12ce8:	02070063          	beqz	a4,12d08 <__divdf3+0x738>
   12cec:	00f7f713          	andi	a4,a5,15
   12cf0:	00400693          	li	a3,4
   12cf4:	00d70a63          	beq	a4,a3,12d08 <__divdf3+0x738>
   12cf8:	00d78733          	add	a4,a5,a3
   12cfc:	00f736b3          	sltu	a3,a4,a5
   12d00:	00d40433          	add	s0,s0,a3
   12d04:	00070793          	mv	a5,a4
   12d08:	00841713          	slli	a4,s0,0x8
   12d0c:	06074c63          	bltz	a4,12d84 <__divdf3+0x7b4>
   12d10:	01d41713          	slli	a4,s0,0x1d
   12d14:	0037d793          	srli	a5,a5,0x3
   12d18:	00f76733          	or	a4,a4,a5
   12d1c:	00345413          	srli	s0,s0,0x3
   12d20:	00000793          	li	a5,0
   12d24:	ea1ff06f          	j	12bc4 <__divdf3+0x5f4>
   12d28:	00100713          	li	a4,1
   12d2c:	f99ff06f          	j	12cc4 <__divdf3+0x6f4>
   12d30:	fe100613          	li	a2,-31
   12d34:	40f60733          	sub	a4,a2,a5
   12d38:	00e45733          	srl	a4,s0,a4
   12d3c:	00000693          	li	a3,0
   12d40:	00c78663          	beq	a5,a2,12d4c <__divdf3+0x77c>
   12d44:	43ea8a93          	addi	s5,s5,1086
   12d48:	015416b3          	sll	a3,s0,s5
   12d4c:	00b6e6b3          	or	a3,a3,a1
   12d50:	00d036b3          	snez	a3,a3
   12d54:	00d767b3          	or	a5,a4,a3
   12d58:	00000413          	li	s0,0
   12d5c:	f89ff06f          	j	12ce4 <__divdf3+0x714>
   12d60:	00080437          	lui	s0,0x80
   12d64:	00000713          	li	a4,0
   12d68:	7ff00793          	li	a5,2047
   12d6c:	00000913          	li	s2,0
   12d70:	e55ff06f          	j	12bc4 <__divdf3+0x5f4>
   12d74:	00000413          	li	s0,0
   12d78:	00000713          	li	a4,0
   12d7c:	7ff00793          	li	a5,2047
   12d80:	e45ff06f          	j	12bc4 <__divdf3+0x5f4>
   12d84:	00000413          	li	s0,0
   12d88:	00000713          	li	a4,0
   12d8c:	00100793          	li	a5,1
   12d90:	e35ff06f          	j	12bc4 <__divdf3+0x5f4>

00012d94 <__eqdf2>:
   12d94:	001007b7          	lui	a5,0x100
   12d98:	0145d813          	srli	a6,a1,0x14
   12d9c:	fff78793          	addi	a5,a5,-1 # fffff <__BSS_END__+0xe3257>
   12da0:	0146d313          	srli	t1,a3,0x14
   12da4:	7ff87813          	andi	a6,a6,2047
   12da8:	7ff00e93          	li	t4,2047
   12dac:	00b7f733          	and	a4,a5,a1
   12db0:	00050893          	mv	a7,a0
   12db4:	01f5df93          	srli	t6,a1,0x1f
   12db8:	00d7f7b3          	and	a5,a5,a3
   12dbc:	7ff37313          	andi	t1,t1,2047
   12dc0:	01f6df13          	srli	t5,a3,0x1f
   12dc4:	01d81863          	bne	a6,t4,12dd4 <__eqdf2+0x40>
   12dc8:	00a76e33          	or	t3,a4,a0
   12dcc:	00100513          	li	a0,1
   12dd0:	040e1263          	bnez	t3,12e14 <__eqdf2+0x80>
   12dd4:	01d31863          	bne	t1,t4,12de4 <__eqdf2+0x50>
   12dd8:	00c7e7b3          	or	a5,a5,a2
   12ddc:	00100513          	li	a0,1
   12de0:	02079a63          	bnez	a5,12e14 <__eqdf2+0x80>
   12de4:	00b6c6b3          	xor	a3,a3,a1
   12de8:	00169693          	slli	a3,a3,0x1
   12dec:	02069263          	bnez	a3,12e10 <__eqdf2+0x7c>
   12df0:	03161063          	bne	a2,a7,12e10 <__eqdf2+0x7c>
   12df4:	00000513          	li	a0,0
   12df8:	01ef8e63          	beq	t6,t5,12e14 <__eqdf2+0x80>
   12dfc:	00100513          	li	a0,1
   12e00:	00081a63          	bnez	a6,12e14 <__eqdf2+0x80>
   12e04:	01176733          	or	a4,a4,a7
   12e08:	00e03533          	snez	a0,a4
   12e0c:	00008067          	ret
   12e10:	00100513          	li	a0,1
   12e14:	00008067          	ret

00012e18 <__gedf2>:
   12e18:	0145d893          	srli	a7,a1,0x14
   12e1c:	00100737          	lui	a4,0x100
   12e20:	fff70713          	addi	a4,a4,-1 # fffff <__BSS_END__+0xe3257>
   12e24:	0146d813          	srli	a6,a3,0x14
   12e28:	7ff8f893          	andi	a7,a7,2047
   12e2c:	7ff00793          	li	a5,2047
   12e30:	00b77333          	and	t1,a4,a1
   12e34:	7ff87813          	andi	a6,a6,2047
   12e38:	00d77733          	and	a4,a4,a3
   12e3c:	01f5d593          	srli	a1,a1,0x1f
   12e40:	01f6d693          	srli	a3,a3,0x1f
   12e44:	02f88063          	beq	a7,a5,12e64 <__gedf2+0x4c>
   12e48:	7ff00e13          	li	t3,2047
   12e4c:	00080793          	mv	a5,a6
   12e50:	03c81463          	bne	a6,t3,12e78 <__gedf2+0x60>
   12e54:	00c76e33          	or	t3,a4,a2
   12e58:	020e0063          	beqz	t3,12e78 <__gedf2+0x60>
   12e5c:	ffe00793          	li	a5,-2
   12e60:	0100006f          	j	12e70 <__gedf2+0x58>
   12e64:	00a36e33          	or	t3,t1,a0
   12e68:	ffe00793          	li	a5,-2
   12e6c:	fc0e0ee3          	beqz	t3,12e48 <__gedf2+0x30>
   12e70:	00078513          	mv	a0,a5
   12e74:	00008067          	ret
   12e78:	00000e13          	li	t3,0
   12e7c:	00089663          	bnez	a7,12e88 <__gedf2+0x70>
   12e80:	00a36e33          	or	t3,t1,a0
   12e84:	001e3e13          	seqz	t3,t3
   12e88:	04081863          	bnez	a6,12ed8 <__gedf2+0xc0>
   12e8c:	00c76eb3          	or	t4,a4,a2
   12e90:	000e0a63          	beqz	t3,12ea4 <__gedf2+0x8c>
   12e94:	fc0e8ee3          	beqz	t4,12e70 <__gedf2+0x58>
   12e98:	00169793          	slli	a5,a3,0x1
   12e9c:	fff78793          	addi	a5,a5,-1
   12ea0:	fd1ff06f          	j	12e70 <__gedf2+0x58>
   12ea4:	020e9c63          	bnez	t4,12edc <__gedf2+0xc4>
   12ea8:	40b005b3          	neg	a1,a1
   12eac:	0015e793          	ori	a5,a1,1
   12eb0:	fc1ff06f          	j	12e70 <__gedf2+0x58>
   12eb4:	ff08c2e3          	blt	a7,a6,12e98 <__gedf2+0x80>
   12eb8:	fe6768e3          	bltu	a4,t1,12ea8 <__gedf2+0x90>
   12ebc:	00a67463          	bgeu	a2,a0,12ec4 <__gedf2+0xac>
   12ec0:	fee304e3          	beq	t1,a4,12ea8 <__gedf2+0x90>
   12ec4:	00c56663          	bltu	a0,a2,12ed0 <__gedf2+0xb8>
   12ec8:	00000793          	li	a5,0
   12ecc:	fae372e3          	bgeu	t1,a4,12e70 <__gedf2+0x58>
   12ed0:	00159793          	slli	a5,a1,0x1
   12ed4:	fc9ff06f          	j	12e9c <__gedf2+0x84>
   12ed8:	fc0e10e3          	bnez	t3,12e98 <__gedf2+0x80>
   12edc:	fcb696e3          	bne	a3,a1,12ea8 <__gedf2+0x90>
   12ee0:	fd185ae3          	bge	a6,a7,12eb4 <__gedf2+0x9c>
   12ee4:	40d006b3          	neg	a3,a3
   12ee8:	0016e793          	ori	a5,a3,1
   12eec:	f85ff06f          	j	12e70 <__gedf2+0x58>

00012ef0 <__ledf2>:
   12ef0:	0145d893          	srli	a7,a1,0x14
   12ef4:	00100737          	lui	a4,0x100
   12ef8:	fff70713          	addi	a4,a4,-1 # fffff <__BSS_END__+0xe3257>
   12efc:	0146d813          	srli	a6,a3,0x14
   12f00:	7ff8f893          	andi	a7,a7,2047
   12f04:	7ff00793          	li	a5,2047
   12f08:	00b77333          	and	t1,a4,a1
   12f0c:	7ff87813          	andi	a6,a6,2047
   12f10:	00d77733          	and	a4,a4,a3
   12f14:	01f5d593          	srli	a1,a1,0x1f
   12f18:	01f6d693          	srli	a3,a3,0x1f
   12f1c:	02f88063          	beq	a7,a5,12f3c <__ledf2+0x4c>
   12f20:	7ff00e13          	li	t3,2047
   12f24:	00080793          	mv	a5,a6
   12f28:	03c81463          	bne	a6,t3,12f50 <__ledf2+0x60>
   12f2c:	00c76e33          	or	t3,a4,a2
   12f30:	020e0063          	beqz	t3,12f50 <__ledf2+0x60>
   12f34:	00200793          	li	a5,2
   12f38:	0100006f          	j	12f48 <__ledf2+0x58>
   12f3c:	00a36e33          	or	t3,t1,a0
   12f40:	00200793          	li	a5,2
   12f44:	fc0e0ee3          	beqz	t3,12f20 <__ledf2+0x30>
   12f48:	00078513          	mv	a0,a5
   12f4c:	00008067          	ret
   12f50:	00000e13          	li	t3,0
   12f54:	00089663          	bnez	a7,12f60 <__ledf2+0x70>
   12f58:	00a36e33          	or	t3,t1,a0
   12f5c:	001e3e13          	seqz	t3,t3
   12f60:	04081863          	bnez	a6,12fb0 <__ledf2+0xc0>
   12f64:	00c76eb3          	or	t4,a4,a2
   12f68:	000e0a63          	beqz	t3,12f7c <__ledf2+0x8c>
   12f6c:	fc0e8ee3          	beqz	t4,12f48 <__ledf2+0x58>
   12f70:	00169793          	slli	a5,a3,0x1
   12f74:	fff78793          	addi	a5,a5,-1
   12f78:	fd1ff06f          	j	12f48 <__ledf2+0x58>
   12f7c:	020e9c63          	bnez	t4,12fb4 <__ledf2+0xc4>
   12f80:	40b005b3          	neg	a1,a1
   12f84:	0015e793          	ori	a5,a1,1
   12f88:	fc1ff06f          	j	12f48 <__ledf2+0x58>
   12f8c:	ff08c2e3          	blt	a7,a6,12f70 <__ledf2+0x80>
   12f90:	fe6768e3          	bltu	a4,t1,12f80 <__ledf2+0x90>
   12f94:	00a67463          	bgeu	a2,a0,12f9c <__ledf2+0xac>
   12f98:	fee304e3          	beq	t1,a4,12f80 <__ledf2+0x90>
   12f9c:	00c56663          	bltu	a0,a2,12fa8 <__ledf2+0xb8>
   12fa0:	00000793          	li	a5,0
   12fa4:	fae372e3          	bgeu	t1,a4,12f48 <__ledf2+0x58>
   12fa8:	00159793          	slli	a5,a1,0x1
   12fac:	fc9ff06f          	j	12f74 <__ledf2+0x84>
   12fb0:	fc0e10e3          	bnez	t3,12f70 <__ledf2+0x80>
   12fb4:	fcb696e3          	bne	a3,a1,12f80 <__ledf2+0x90>
   12fb8:	fd185ae3          	bge	a6,a7,12f8c <__ledf2+0x9c>
   12fbc:	40d006b3          	neg	a3,a3
   12fc0:	0016e793          	ori	a5,a3,1
   12fc4:	f85ff06f          	j	12f48 <__ledf2+0x58>

00012fc8 <__muldf3>:
   12fc8:	fd010113          	addi	sp,sp,-48
   12fcc:	01312e23          	sw	s3,28(sp)
   12fd0:	0145d993          	srli	s3,a1,0x14
   12fd4:	02812423          	sw	s0,40(sp)
   12fd8:	02912223          	sw	s1,36(sp)
   12fdc:	01412c23          	sw	s4,24(sp)
   12fe0:	01512a23          	sw	s5,20(sp)
   12fe4:	01712623          	sw	s7,12(sp)
   12fe8:	00c59493          	slli	s1,a1,0xc
   12fec:	02112623          	sw	ra,44(sp)
   12ff0:	03212023          	sw	s2,32(sp)
   12ff4:	01612823          	sw	s6,16(sp)
   12ff8:	7ff9f993          	andi	s3,s3,2047
   12ffc:	00050413          	mv	s0,a0
   13000:	00060b93          	mv	s7,a2
   13004:	00068a13          	mv	s4,a3
   13008:	00c4d493          	srli	s1,s1,0xc
   1300c:	01f5da93          	srli	s5,a1,0x1f
   13010:	0c098263          	beqz	s3,130d4 <__muldf3+0x10c>
   13014:	7ff00793          	li	a5,2047
   13018:	12f98463          	beq	s3,a5,13140 <__muldf3+0x178>
   1301c:	00349493          	slli	s1,s1,0x3
   13020:	01d55793          	srli	a5,a0,0x1d
   13024:	0097e7b3          	or	a5,a5,s1
   13028:	008004b7          	lui	s1,0x800
   1302c:	0097e4b3          	or	s1,a5,s1
   13030:	00351913          	slli	s2,a0,0x3
   13034:	c0198993          	addi	s3,s3,-1023
   13038:	00000b13          	li	s6,0
   1303c:	014a5793          	srli	a5,s4,0x14
   13040:	00ca1413          	slli	s0,s4,0xc
   13044:	7ff7f793          	andi	a5,a5,2047
   13048:	00c45413          	srli	s0,s0,0xc
   1304c:	01fa5a13          	srli	s4,s4,0x1f
   13050:	12078063          	beqz	a5,13170 <__muldf3+0x1a8>
   13054:	7ff00713          	li	a4,2047
   13058:	18e78463          	beq	a5,a4,131e0 <__muldf3+0x218>
   1305c:	00341413          	slli	s0,s0,0x3
   13060:	01dbd713          	srli	a4,s7,0x1d
   13064:	00876733          	or	a4,a4,s0
   13068:	00800437          	lui	s0,0x800
   1306c:	00876433          	or	s0,a4,s0
   13070:	003b9593          	slli	a1,s7,0x3
   13074:	c0178793          	addi	a5,a5,-1023
   13078:	00000693          	li	a3,0
   1307c:	00f989b3          	add	s3,s3,a5
   13080:	002b1793          	slli	a5,s6,0x2
   13084:	00d7e7b3          	or	a5,a5,a3
   13088:	00a00713          	li	a4,10
   1308c:	00198893          	addi	a7,s3,1
   13090:	1af74263          	blt	a4,a5,13234 <__muldf3+0x26c>
   13094:	00200613          	li	a2,2
   13098:	014ac833          	xor	a6,s5,s4
   1309c:	00100713          	li	a4,1
   130a0:	16f64863          	blt	a2,a5,13210 <__muldf3+0x248>
   130a4:	fff78793          	addi	a5,a5,-1
   130a8:	1af76663          	bltu	a4,a5,13254 <__muldf3+0x28c>
   130ac:	00068b13          	mv	s6,a3
   130b0:	00200793          	li	a5,2
   130b4:	58fb0863          	beq	s6,a5,13644 <__muldf3+0x67c>
   130b8:	00300793          	li	a5,3
   130bc:	56fb0e63          	beq	s6,a5,13638 <__muldf3+0x670>
   130c0:	00100793          	li	a5,1
   130c4:	40fb1063          	bne	s6,a5,134c4 <__muldf3+0x4fc>
   130c8:	00000413          	li	s0,0
   130cc:	00000713          	li	a4,0
   130d0:	5180006f          	j	135e8 <__muldf3+0x620>
   130d4:	00a4e933          	or	s2,s1,a0
   130d8:	06090e63          	beqz	s2,13154 <__muldf3+0x18c>
   130dc:	04048263          	beqz	s1,13120 <__muldf3+0x158>
   130e0:	00048513          	mv	a0,s1
   130e4:	61d010ef          	jal	14f00 <__clzsi2>
   130e8:	00050713          	mv	a4,a0
   130ec:	ff550693          	addi	a3,a0,-11
   130f0:	01d00793          	li	a5,29
   130f4:	ff870613          	addi	a2,a4,-8
   130f8:	40d787b3          	sub	a5,a5,a3
   130fc:	00c494b3          	sll	s1,s1,a2
   13100:	00f457b3          	srl	a5,s0,a5
   13104:	0097e7b3          	or	a5,a5,s1
   13108:	00c414b3          	sll	s1,s0,a2
   1310c:	c0d00993          	li	s3,-1011
   13110:	00048913          	mv	s2,s1
   13114:	40e989b3          	sub	s3,s3,a4
   13118:	00078493          	mv	s1,a5
   1311c:	f1dff06f          	j	13038 <__muldf3+0x70>
   13120:	5e1010ef          	jal	14f00 <__clzsi2>
   13124:	01550693          	addi	a3,a0,21
   13128:	01c00793          	li	a5,28
   1312c:	02050713          	addi	a4,a0,32
   13130:	fcd7d0e3          	bge	a5,a3,130f0 <__muldf3+0x128>
   13134:	ff850793          	addi	a5,a0,-8
   13138:	00f417b3          	sll	a5,s0,a5
   1313c:	fd1ff06f          	j	1310c <__muldf3+0x144>
   13140:	00a4e933          	or	s2,s1,a0
   13144:	02091063          	bnez	s2,13164 <__muldf3+0x19c>
   13148:	00000493          	li	s1,0
   1314c:	00200b13          	li	s6,2
   13150:	eedff06f          	j	1303c <__muldf3+0x74>
   13154:	00000493          	li	s1,0
   13158:	00000993          	li	s3,0
   1315c:	00100b13          	li	s6,1
   13160:	eddff06f          	j	1303c <__muldf3+0x74>
   13164:	00050913          	mv	s2,a0
   13168:	00300b13          	li	s6,3
   1316c:	ed1ff06f          	j	1303c <__muldf3+0x74>
   13170:	017465b3          	or	a1,s0,s7
   13174:	08058063          	beqz	a1,131f4 <__muldf3+0x22c>
   13178:	04040263          	beqz	s0,131bc <__muldf3+0x1f4>
   1317c:	00040513          	mv	a0,s0
   13180:	581010ef          	jal	14f00 <__clzsi2>
   13184:	00050693          	mv	a3,a0
   13188:	ff550793          	addi	a5,a0,-11
   1318c:	01d00713          	li	a4,29
   13190:	ff868613          	addi	a2,a3,-8
   13194:	40f70733          	sub	a4,a4,a5
   13198:	00c41433          	sll	s0,s0,a2
   1319c:	00ebd733          	srl	a4,s7,a4
   131a0:	00876733          	or	a4,a4,s0
   131a4:	00cb9433          	sll	s0,s7,a2
   131a8:	c0d00793          	li	a5,-1011
   131ac:	00040593          	mv	a1,s0
   131b0:	40d787b3          	sub	a5,a5,a3
   131b4:	00070413          	mv	s0,a4
   131b8:	ec1ff06f          	j	13078 <__muldf3+0xb0>
   131bc:	000b8513          	mv	a0,s7
   131c0:	541010ef          	jal	14f00 <__clzsi2>
   131c4:	01550793          	addi	a5,a0,21
   131c8:	01c00713          	li	a4,28
   131cc:	02050693          	addi	a3,a0,32
   131d0:	faf75ee3          	bge	a4,a5,1318c <__muldf3+0x1c4>
   131d4:	ff850713          	addi	a4,a0,-8
   131d8:	00eb9733          	sll	a4,s7,a4
   131dc:	fcdff06f          	j	131a8 <__muldf3+0x1e0>
   131e0:	017465b3          	or	a1,s0,s7
   131e4:	02059063          	bnez	a1,13204 <__muldf3+0x23c>
   131e8:	00000413          	li	s0,0
   131ec:	00200693          	li	a3,2
   131f0:	e8dff06f          	j	1307c <__muldf3+0xb4>
   131f4:	00000413          	li	s0,0
   131f8:	00000793          	li	a5,0
   131fc:	00100693          	li	a3,1
   13200:	e7dff06f          	j	1307c <__muldf3+0xb4>
   13204:	000b8593          	mv	a1,s7
   13208:	00300693          	li	a3,3
   1320c:	e71ff06f          	j	1307c <__muldf3+0xb4>
   13210:	00f717b3          	sll	a5,a4,a5
   13214:	5307f713          	andi	a4,a5,1328
   13218:	02071863          	bnez	a4,13248 <__muldf3+0x280>
   1321c:	2407f613          	andi	a2,a5,576
   13220:	40061463          	bnez	a2,13628 <__muldf3+0x660>
   13224:	0887f793          	andi	a5,a5,136
   13228:	02078663          	beqz	a5,13254 <__muldf3+0x28c>
   1322c:	000a0813          	mv	a6,s4
   13230:	e7dff06f          	j	130ac <__muldf3+0xe4>
   13234:	00f00713          	li	a4,15
   13238:	40e78063          	beq	a5,a4,13638 <__muldf3+0x670>
   1323c:	00b00713          	li	a4,11
   13240:	000a8813          	mv	a6,s5
   13244:	fee784e3          	beq	a5,a4,1322c <__muldf3+0x264>
   13248:	00048413          	mv	s0,s1
   1324c:	00090593          	mv	a1,s2
   13250:	e61ff06f          	j	130b0 <__muldf3+0xe8>
   13254:	01095793          	srli	a5,s2,0x10
   13258:	01059f13          	slli	t5,a1,0x10
   1325c:	01091913          	slli	s2,s2,0x10
   13260:	01095913          	srli	s2,s2,0x10
   13264:	010f5f13          	srli	t5,t5,0x10
   13268:	0105de93          	srli	t4,a1,0x10
   1326c:	00090513          	mv	a0,s2
   13270:	000f0593          	mv	a1,t5
   13274:	2b1010ef          	jal	14d24 <__mulsi3>
   13278:	00050e13          	mv	t3,a0
   1327c:	000e8593          	mv	a1,t4
   13280:	00090513          	mv	a0,s2
   13284:	2a1010ef          	jal	14d24 <__mulsi3>
   13288:	00050f93          	mv	t6,a0
   1328c:	000f0593          	mv	a1,t5
   13290:	00078513          	mv	a0,a5
   13294:	291010ef          	jal	14d24 <__mulsi3>
   13298:	00050293          	mv	t0,a0
   1329c:	000e8593          	mv	a1,t4
   132a0:	00078513          	mv	a0,a5
   132a4:	281010ef          	jal	14d24 <__mulsi3>
   132a8:	010e5313          	srli	t1,t3,0x10
   132ac:	005f8fb3          	add	t6,t6,t0
   132b0:	01f30333          	add	t1,t1,t6
   132b4:	00050713          	mv	a4,a0
   132b8:	00537663          	bgeu	t1,t0,132c4 <__muldf3+0x2fc>
   132bc:	000106b7          	lui	a3,0x10
   132c0:	00d50733          	add	a4,a0,a3
   132c4:	010e1e13          	slli	t3,t3,0x10
   132c8:	01035393          	srli	t2,t1,0x10
   132cc:	010e5e13          	srli	t3,t3,0x10
   132d0:	01031313          	slli	t1,t1,0x10
   132d4:	01c30333          	add	t1,t1,t3
   132d8:	01045e13          	srli	t3,s0,0x10
   132dc:	01041413          	slli	s0,s0,0x10
   132e0:	01045413          	srli	s0,s0,0x10
   132e4:	00090513          	mv	a0,s2
   132e8:	00040593          	mv	a1,s0
   132ec:	239010ef          	jal	14d24 <__mulsi3>
   132f0:	00050293          	mv	t0,a0
   132f4:	000e0593          	mv	a1,t3
   132f8:	00090513          	mv	a0,s2
   132fc:	229010ef          	jal	14d24 <__mulsi3>
   13300:	00050f93          	mv	t6,a0
   13304:	00040593          	mv	a1,s0
   13308:	00078513          	mv	a0,a5
   1330c:	219010ef          	jal	14d24 <__mulsi3>
   13310:	00050913          	mv	s2,a0
   13314:	000e0593          	mv	a1,t3
   13318:	00078513          	mv	a0,a5
   1331c:	209010ef          	jal	14d24 <__mulsi3>
   13320:	0102d793          	srli	a5,t0,0x10
   13324:	012f8fb3          	add	t6,t6,s2
   13328:	01f787b3          	add	a5,a5,t6
   1332c:	0127f663          	bgeu	a5,s2,13338 <__muldf3+0x370>
   13330:	000106b7          	lui	a3,0x10
   13334:	00d50533          	add	a0,a0,a3
   13338:	01029293          	slli	t0,t0,0x10
   1333c:	0107d593          	srli	a1,a5,0x10
   13340:	0102d293          	srli	t0,t0,0x10
   13344:	0104d913          	srli	s2,s1,0x10
   13348:	01079793          	slli	a5,a5,0x10
   1334c:	01049493          	slli	s1,s1,0x10
   13350:	005787b3          	add	a5,a5,t0
   13354:	0104d493          	srli	s1,s1,0x10
   13358:	00a58fb3          	add	t6,a1,a0
   1335c:	00f383b3          	add	t2,t2,a5
   13360:	00048513          	mv	a0,s1
   13364:	000f0593          	mv	a1,t5
   13368:	1bd010ef          	jal	14d24 <__mulsi3>
   1336c:	00050293          	mv	t0,a0
   13370:	000e8593          	mv	a1,t4
   13374:	00048513          	mv	a0,s1
   13378:	1ad010ef          	jal	14d24 <__mulsi3>
   1337c:	00050a13          	mv	s4,a0
   13380:	000f0593          	mv	a1,t5
   13384:	00090513          	mv	a0,s2
   13388:	19d010ef          	jal	14d24 <__mulsi3>
   1338c:	00050f13          	mv	t5,a0
   13390:	000e8593          	mv	a1,t4
   13394:	00090513          	mv	a0,s2
   13398:	18d010ef          	jal	14d24 <__mulsi3>
   1339c:	0102d613          	srli	a2,t0,0x10
   133a0:	01ea0a33          	add	s4,s4,t5
   133a4:	01460633          	add	a2,a2,s4
   133a8:	01e67663          	bgeu	a2,t5,133b4 <__muldf3+0x3ec>
   133ac:	000106b7          	lui	a3,0x10
   133b0:	00d50533          	add	a0,a0,a3
   133b4:	01029293          	slli	t0,t0,0x10
   133b8:	01065593          	srli	a1,a2,0x10
   133bc:	0102d293          	srli	t0,t0,0x10
   133c0:	01061613          	slli	a2,a2,0x10
   133c4:	00a58eb3          	add	t4,a1,a0
   133c8:	00560f33          	add	t5,a2,t0
   133cc:	00048513          	mv	a0,s1
   133d0:	00040593          	mv	a1,s0
   133d4:	151010ef          	jal	14d24 <__mulsi3>
   133d8:	00050293          	mv	t0,a0
   133dc:	000e0593          	mv	a1,t3
   133e0:	00048513          	mv	a0,s1
   133e4:	141010ef          	jal	14d24 <__mulsi3>
   133e8:	00050493          	mv	s1,a0
   133ec:	00040593          	mv	a1,s0
   133f0:	00090513          	mv	a0,s2
   133f4:	131010ef          	jal	14d24 <__mulsi3>
   133f8:	00050413          	mv	s0,a0
   133fc:	000e0593          	mv	a1,t3
   13400:	00090513          	mv	a0,s2
   13404:	121010ef          	jal	14d24 <__mulsi3>
   13408:	0102d613          	srli	a2,t0,0x10
   1340c:	008484b3          	add	s1,s1,s0
   13410:	00960633          	add	a2,a2,s1
   13414:	00050e13          	mv	t3,a0
   13418:	00867663          	bgeu	a2,s0,13424 <__muldf3+0x45c>
   1341c:	000106b7          	lui	a3,0x10
   13420:	00d50e33          	add	t3,a0,a3
   13424:	01029293          	slli	t0,t0,0x10
   13428:	01061693          	slli	a3,a2,0x10
   1342c:	0102d293          	srli	t0,t0,0x10
   13430:	00770733          	add	a4,a4,t2
   13434:	005686b3          	add	a3,a3,t0
   13438:	01f685b3          	add	a1,a3,t6
   1343c:	00f737b3          	sltu	a5,a4,a5
   13440:	00f587b3          	add	a5,a1,a5
   13444:	00d5b6b3          	sltu	a3,a1,a3
   13448:	00b7b5b3          	sltu	a1,a5,a1
   1344c:	00b6e6b3          	or	a3,a3,a1
   13450:	01065613          	srli	a2,a2,0x10
   13454:	00c686b3          	add	a3,a3,a2
   13458:	01e70633          	add	a2,a4,t5
   1345c:	01d785b3          	add	a1,a5,t4
   13460:	00e63733          	sltu	a4,a2,a4
   13464:	00e58733          	add	a4,a1,a4
   13468:	00f5b7b3          	sltu	a5,a1,a5
   1346c:	00b735b3          	sltu	a1,a4,a1
   13470:	00b7e7b3          	or	a5,a5,a1
   13474:	00961593          	slli	a1,a2,0x9
   13478:	00d787b3          	add	a5,a5,a3
   1347c:	0065e5b3          	or	a1,a1,t1
   13480:	01c787b3          	add	a5,a5,t3
   13484:	00b035b3          	snez	a1,a1
   13488:	01765613          	srli	a2,a2,0x17
   1348c:	00979793          	slli	a5,a5,0x9
   13490:	01775413          	srli	s0,a4,0x17
   13494:	00c5e5b3          	or	a1,a1,a2
   13498:	00971713          	slli	a4,a4,0x9
   1349c:	00e5e5b3          	or	a1,a1,a4
   134a0:	00779713          	slli	a4,a5,0x7
   134a4:	0087e433          	or	s0,a5,s0
   134a8:	0c075063          	bgez	a4,13568 <__muldf3+0x5a0>
   134ac:	0015d793          	srli	a5,a1,0x1
   134b0:	0015f593          	andi	a1,a1,1
   134b4:	00b7e7b3          	or	a5,a5,a1
   134b8:	01f41593          	slli	a1,s0,0x1f
   134bc:	00b7e5b3          	or	a1,a5,a1
   134c0:	00145413          	srli	s0,s0,0x1
   134c4:	3ff88793          	addi	a5,a7,1023
   134c8:	0af05463          	blez	a5,13570 <__muldf3+0x5a8>
   134cc:	0075f713          	andi	a4,a1,7
   134d0:	02070063          	beqz	a4,134f0 <__muldf3+0x528>
   134d4:	00f5f713          	andi	a4,a1,15
   134d8:	00400693          	li	a3,4
   134dc:	00d70a63          	beq	a4,a3,134f0 <__muldf3+0x528>
   134e0:	00d58733          	add	a4,a1,a3
   134e4:	00b736b3          	sltu	a3,a4,a1
   134e8:	00d40433          	add	s0,s0,a3
   134ec:	00070593          	mv	a1,a4
   134f0:	00741713          	slli	a4,s0,0x7
   134f4:	00075a63          	bgez	a4,13508 <__muldf3+0x540>
   134f8:	ff0007b7          	lui	a5,0xff000
   134fc:	fff78793          	addi	a5,a5,-1 # feffffff <__BSS_END__+0xfefe3257>
   13500:	00f47433          	and	s0,s0,a5
   13504:	40088793          	addi	a5,a7,1024
   13508:	7fe00713          	li	a4,2046
   1350c:	12f74c63          	blt	a4,a5,13644 <__muldf3+0x67c>
   13510:	01d41713          	slli	a4,s0,0x1d
   13514:	0035d593          	srli	a1,a1,0x3
   13518:	00b76733          	or	a4,a4,a1
   1351c:	00345413          	srli	s0,s0,0x3
   13520:	00c41413          	slli	s0,s0,0xc
   13524:	00c45413          	srli	s0,s0,0xc
   13528:	01479793          	slli	a5,a5,0x14
   1352c:	02c12083          	lw	ra,44(sp)
   13530:	0087e7b3          	or	a5,a5,s0
   13534:	02812403          	lw	s0,40(sp)
   13538:	01f81813          	slli	a6,a6,0x1f
   1353c:	02412483          	lw	s1,36(sp)
   13540:	02012903          	lw	s2,32(sp)
   13544:	01c12983          	lw	s3,28(sp)
   13548:	01812a03          	lw	s4,24(sp)
   1354c:	01412a83          	lw	s5,20(sp)
   13550:	01012b03          	lw	s6,16(sp)
   13554:	00c12b83          	lw	s7,12(sp)
   13558:	00070513          	mv	a0,a4
   1355c:	0107e5b3          	or	a1,a5,a6
   13560:	03010113          	addi	sp,sp,48
   13564:	00008067          	ret
   13568:	00098893          	mv	a7,s3
   1356c:	f59ff06f          	j	134c4 <__muldf3+0x4fc>
   13570:	08078063          	beqz	a5,135f0 <__muldf3+0x628>
   13574:	fc900713          	li	a4,-55
   13578:	b4e7c8e3          	blt	a5,a4,130c8 <__muldf3+0x100>
   1357c:	fe200713          	li	a4,-30
   13580:	06e7cc63          	blt	a5,a4,135f8 <__muldf3+0x630>
   13584:	00100713          	li	a4,1
   13588:	40f70733          	sub	a4,a4,a5
   1358c:	41e88893          	addi	a7,a7,1054
   13590:	011597b3          	sll	a5,a1,a7
   13594:	00f037b3          	snez	a5,a5
   13598:	011418b3          	sll	a7,s0,a7
   1359c:	00e5d6b3          	srl	a3,a1,a4
   135a0:	0117e7b3          	or	a5,a5,a7
   135a4:	00d7e7b3          	or	a5,a5,a3
   135a8:	00e45433          	srl	s0,s0,a4
   135ac:	0077f713          	andi	a4,a5,7
   135b0:	02070063          	beqz	a4,135d0 <__muldf3+0x608>
   135b4:	00f7f713          	andi	a4,a5,15
   135b8:	00400693          	li	a3,4
   135bc:	00d70a63          	beq	a4,a3,135d0 <__muldf3+0x608>
   135c0:	00d78733          	add	a4,a5,a3
   135c4:	00f736b3          	sltu	a3,a4,a5
   135c8:	00d40433          	add	s0,s0,a3
   135cc:	00070793          	mv	a5,a4
   135d0:	00841713          	slli	a4,s0,0x8
   135d4:	08074063          	bltz	a4,13654 <__muldf3+0x68c>
   135d8:	01d41713          	slli	a4,s0,0x1d
   135dc:	0037d793          	srli	a5,a5,0x3
   135e0:	00f76733          	or	a4,a4,a5
   135e4:	00345413          	srli	s0,s0,0x3
   135e8:	00000793          	li	a5,0
   135ec:	f35ff06f          	j	13520 <__muldf3+0x558>
   135f0:	00100713          	li	a4,1
   135f4:	f99ff06f          	j	1358c <__muldf3+0x5c4>
   135f8:	fe100613          	li	a2,-31
   135fc:	40f60733          	sub	a4,a2,a5
   13600:	00e45733          	srl	a4,s0,a4
   13604:	00000693          	li	a3,0
   13608:	00c78663          	beq	a5,a2,13614 <__muldf3+0x64c>
   1360c:	43e88893          	addi	a7,a7,1086
   13610:	011416b3          	sll	a3,s0,a7
   13614:	00d5e5b3          	or	a1,a1,a3
   13618:	00b035b3          	snez	a1,a1
   1361c:	00b767b3          	or	a5,a4,a1
   13620:	00000413          	li	s0,0
   13624:	f89ff06f          	j	135ac <__muldf3+0x5e4>
   13628:	00080437          	lui	s0,0x80
   1362c:	7ff00793          	li	a5,2047
   13630:	00000813          	li	a6,0
   13634:	eedff06f          	j	13520 <__muldf3+0x558>
   13638:	00080437          	lui	s0,0x80
   1363c:	00000713          	li	a4,0
   13640:	fedff06f          	j	1362c <__muldf3+0x664>
   13644:	00000413          	li	s0,0
   13648:	00000713          	li	a4,0
   1364c:	7ff00793          	li	a5,2047
   13650:	ed1ff06f          	j	13520 <__muldf3+0x558>
   13654:	00000413          	li	s0,0
   13658:	00000713          	li	a4,0
   1365c:	00100793          	li	a5,1
   13660:	ec1ff06f          	j	13520 <__muldf3+0x558>

00013664 <__fixdfsi>:
   13664:	0145d713          	srli	a4,a1,0x14
   13668:	001006b7          	lui	a3,0x100
   1366c:	fff68793          	addi	a5,a3,-1 # fffff <__BSS_END__+0xe3257>
   13670:	7ff77713          	andi	a4,a4,2047
   13674:	3fe00613          	li	a2,1022
   13678:	00b7f7b3          	and	a5,a5,a1
   1367c:	01f5d593          	srli	a1,a1,0x1f
   13680:	04e65c63          	bge	a2,a4,136d8 <__fixdfsi+0x74>
   13684:	41d00613          	li	a2,1053
   13688:	00e65a63          	bge	a2,a4,1369c <__fixdfsi+0x38>
   1368c:	80000537          	lui	a0,0x80000
   13690:	fff50513          	addi	a0,a0,-1 # 7fffffff <__BSS_END__+0x7ffe3257>
   13694:	00a58533          	add	a0,a1,a0
   13698:	00008067          	ret
   1369c:	00d7e7b3          	or	a5,a5,a3
   136a0:	41300693          	li	a3,1043
   136a4:	02e6d463          	bge	a3,a4,136cc <__fixdfsi+0x68>
   136a8:	bed70693          	addi	a3,a4,-1043
   136ac:	00d797b3          	sll	a5,a5,a3
   136b0:	43300693          	li	a3,1075
   136b4:	40e68733          	sub	a4,a3,a4
   136b8:	00e55533          	srl	a0,a0,a4
   136bc:	00a7e533          	or	a0,a5,a0
   136c0:	00058e63          	beqz	a1,136dc <__fixdfsi+0x78>
   136c4:	40a00533          	neg	a0,a0
   136c8:	00008067          	ret
   136cc:	40e686b3          	sub	a3,a3,a4
   136d0:	00d7d533          	srl	a0,a5,a3
   136d4:	fedff06f          	j	136c0 <__fixdfsi+0x5c>
   136d8:	00000513          	li	a0,0
   136dc:	00008067          	ret

000136e0 <__floatsidf>:
   136e0:	ff010113          	addi	sp,sp,-16
   136e4:	00112623          	sw	ra,12(sp)
   136e8:	00812423          	sw	s0,8(sp)
   136ec:	00912223          	sw	s1,4(sp)
   136f0:	00050793          	mv	a5,a0
   136f4:	08050063          	beqz	a0,13774 <__floatsidf+0x94>
   136f8:	41f55713          	srai	a4,a0,0x1f
   136fc:	00a74433          	xor	s0,a4,a0
   13700:	40e40433          	sub	s0,s0,a4
   13704:	01f55493          	srli	s1,a0,0x1f
   13708:	00040513          	mv	a0,s0
   1370c:	7f4010ef          	jal	14f00 <__clzsi2>
   13710:	41e00793          	li	a5,1054
   13714:	00a00713          	li	a4,10
   13718:	40a787b3          	sub	a5,a5,a0
   1371c:	04a74463          	blt	a4,a0,13764 <__floatsidf+0x84>
   13720:	00b00713          	li	a4,11
   13724:	40a70733          	sub	a4,a4,a0
   13728:	01550513          	addi	a0,a0,21
   1372c:	00e45733          	srl	a4,s0,a4
   13730:	00a41433          	sll	s0,s0,a0
   13734:	00c12083          	lw	ra,12(sp)
   13738:	00040513          	mv	a0,s0
   1373c:	00c71713          	slli	a4,a4,0xc
   13740:	00812403          	lw	s0,8(sp)
   13744:	01479793          	slli	a5,a5,0x14
   13748:	00c75713          	srli	a4,a4,0xc
   1374c:	01f49493          	slli	s1,s1,0x1f
   13750:	00e7e7b3          	or	a5,a5,a4
   13754:	0097e5b3          	or	a1,a5,s1
   13758:	00412483          	lw	s1,4(sp)
   1375c:	01010113          	addi	sp,sp,16
   13760:	00008067          	ret
   13764:	ff550513          	addi	a0,a0,-11
   13768:	00a41733          	sll	a4,s0,a0
   1376c:	00000413          	li	s0,0
   13770:	fc5ff06f          	j	13734 <__floatsidf+0x54>
   13774:	00000493          	li	s1,0
   13778:	00000713          	li	a4,0
   1377c:	ff1ff06f          	j	1376c <__floatsidf+0x8c>

00013780 <__fixdfdi>:
   13780:	00100737          	lui	a4,0x100
   13784:	0145d613          	srli	a2,a1,0x14
   13788:	fff70793          	addi	a5,a4,-1 # fffff <__BSS_END__+0xe3257>
   1378c:	7ff67613          	andi	a2,a2,2047
   13790:	3fe00693          	li	a3,1022
   13794:	00b7f7b3          	and	a5,a5,a1
   13798:	0ac6d063          	bge	a3,a2,13838 <__fixdfdi+0xb8>
   1379c:	ff010113          	addi	sp,sp,-16
   137a0:	00812423          	sw	s0,8(sp)
   137a4:	00112623          	sw	ra,12(sp)
   137a8:	43d00693          	li	a3,1085
   137ac:	01f5d413          	srli	s0,a1,0x1f
   137b0:	02c6d263          	bge	a3,a2,137d4 <__fixdfdi+0x54>
   137b4:	800005b7          	lui	a1,0x80000
   137b8:	fff58593          	addi	a1,a1,-1 # 7fffffff <__BSS_END__+0x7ffe3257>
   137bc:	fff40513          	addi	a0,s0,-1 # 7ffff <__BSS_END__+0x63257>
   137c0:	00b405b3          	add	a1,s0,a1
   137c4:	00c12083          	lw	ra,12(sp)
   137c8:	00812403          	lw	s0,8(sp)
   137cc:	01010113          	addi	sp,sp,16
   137d0:	00008067          	ret
   137d4:	00e7e5b3          	or	a1,a5,a4
   137d8:	43200793          	li	a5,1074
   137dc:	02c7d263          	bge	a5,a2,13800 <__fixdfdi+0x80>
   137e0:	bcd60613          	addi	a2,a2,-1075 # fbcd <exit-0x4e7>
   137e4:	6e0010ef          	jal	14ec4 <__ashldi3>
   137e8:	fc040ee3          	beqz	s0,137c4 <__fixdfdi+0x44>
   137ec:	00a037b3          	snez	a5,a0
   137f0:	40b005b3          	neg	a1,a1
   137f4:	40f585b3          	sub	a1,a1,a5
   137f8:	40a00533          	neg	a0,a0
   137fc:	fc9ff06f          	j	137c4 <__fixdfdi+0x44>
   13800:	41300793          	li	a5,1043
   13804:	02c7d263          	bge	a5,a2,13828 <__fixdfdi+0xa8>
   13808:	43300793          	li	a5,1075
   1380c:	40c787b3          	sub	a5,a5,a2
   13810:	bed60613          	addi	a2,a2,-1043
   13814:	00c59633          	sll	a2,a1,a2
   13818:	00f55533          	srl	a0,a0,a5
   1381c:	00a66533          	or	a0,a2,a0
   13820:	00f5d5b3          	srl	a1,a1,a5
   13824:	fc5ff06f          	j	137e8 <__fixdfdi+0x68>
   13828:	40c78533          	sub	a0,a5,a2
   1382c:	00a5d533          	srl	a0,a1,a0
   13830:	00000593          	li	a1,0
   13834:	fb5ff06f          	j	137e8 <__fixdfdi+0x68>
   13838:	00000513          	li	a0,0
   1383c:	00000593          	li	a1,0
   13840:	00008067          	ret

00013844 <__floatdidf>:
   13844:	fe010113          	addi	sp,sp,-32
   13848:	00112e23          	sw	ra,28(sp)
   1384c:	00812c23          	sw	s0,24(sp)
   13850:	00912a23          	sw	s1,20(sp)
   13854:	01212823          	sw	s2,16(sp)
   13858:	01312623          	sw	s3,12(sp)
   1385c:	01412423          	sw	s4,8(sp)
   13860:	01512223          	sw	s5,4(sp)
   13864:	00b567b3          	or	a5,a0,a1
   13868:	1a078c63          	beqz	a5,13a20 <__floatdidf+0x1dc>
   1386c:	41f5d793          	srai	a5,a1,0x1f
   13870:	00a7c533          	xor	a0,a5,a0
   13874:	00b7c433          	xor	s0,a5,a1
   13878:	40f50ab3          	sub	s5,a0,a5
   1387c:	01553533          	sltu	a0,a0,s5
   13880:	40f40433          	sub	s0,s0,a5
   13884:	40a40433          	sub	s0,s0,a0
   13888:	01f5d493          	srli	s1,a1,0x1f
   1388c:	00040913          	mv	s2,s0
   13890:	0a040e63          	beqz	s0,1394c <__floatdidf+0x108>
   13894:	00040513          	mv	a0,s0
   13898:	668010ef          	jal	14f00 <__clzsi2>
   1389c:	43e00793          	li	a5,1086
   138a0:	40a789b3          	sub	s3,a5,a0
   138a4:	00a00793          	li	a5,10
   138a8:	00050a13          	mv	s4,a0
   138ac:	10a7cc63          	blt	a5,a0,139c4 <__floatdidf+0x180>
   138b0:	00700793          	li	a5,7
   138b4:	12a7ca63          	blt	a5,a0,139e8 <__floatdidf+0x1a4>
   138b8:	03850613          	addi	a2,a0,56
   138bc:	00040593          	mv	a1,s0
   138c0:	000a8513          	mv	a0,s5
   138c4:	600010ef          	jal	14ec4 <__ashldi3>
   138c8:	00800613          	li	a2,8
   138cc:	00b56933          	or	s2,a0,a1
   138d0:	41460633          	sub	a2,a2,s4
   138d4:	00040593          	mv	a1,s0
   138d8:	000a8513          	mv	a0,s5
   138dc:	5ac010ef          	jal	14e88 <__lshrdi3>
   138e0:	01203933          	snez	s2,s2
   138e4:	00a96533          	or	a0,s2,a0
   138e8:	00058413          	mv	s0,a1
   138ec:	ff8007b7          	lui	a5,0xff800
   138f0:	fff78793          	addi	a5,a5,-1 # ff7fffff <__BSS_END__+0xff7e3257>
   138f4:	00f477b3          	and	a5,s0,a5
   138f8:	00757713          	andi	a4,a0,7
   138fc:	02070e63          	beqz	a4,13938 <__floatdidf+0xf4>
   13900:	00f57713          	andi	a4,a0,15
   13904:	00400693          	li	a3,4
   13908:	02d70863          	beq	a4,a3,13938 <__floatdidf+0xf4>
   1390c:	00d50733          	add	a4,a0,a3
   13910:	00a736b3          	sltu	a3,a4,a0
   13914:	00d787b3          	add	a5,a5,a3
   13918:	00070513          	mv	a0,a4
   1391c:	00879713          	slli	a4,a5,0x8
   13920:	00075c63          	bgez	a4,13938 <__floatdidf+0xf4>
   13924:	ff800737          	lui	a4,0xff800
   13928:	fff70713          	addi	a4,a4,-1 # ff7fffff <__BSS_END__+0xff7e3257>
   1392c:	43f00993          	li	s3,1087
   13930:	00e7f7b3          	and	a5,a5,a4
   13934:	414989b3          	sub	s3,s3,s4
   13938:	00355513          	srli	a0,a0,0x3
   1393c:	01d79713          	slli	a4,a5,0x1d
   13940:	00a76733          	or	a4,a4,a0
   13944:	0037d413          	srli	s0,a5,0x3
   13948:	03c0006f          	j	13984 <__floatdidf+0x140>
   1394c:	000a8513          	mv	a0,s5
   13950:	5b0010ef          	jal	14f00 <__clzsi2>
   13954:	43e00793          	li	a5,1086
   13958:	02050a13          	addi	s4,a0,32
   1395c:	414789b3          	sub	s3,a5,s4
   13960:	02a00793          	li	a5,42
   13964:	0747ca63          	blt	a5,s4,139d8 <__floatdidf+0x194>
   13968:	02b00413          	li	s0,43
   1396c:	ff5a0713          	addi	a4,s4,-11
   13970:	41440433          	sub	s0,s0,s4
   13974:	00e917b3          	sll	a5,s2,a4
   13978:	008ad433          	srl	s0,s5,s0
   1397c:	00f46433          	or	s0,s0,a5
   13980:	00ea9733          	sll	a4,s5,a4
   13984:	00c41413          	slli	s0,s0,0xc
   13988:	01499793          	slli	a5,s3,0x14
   1398c:	00c45413          	srli	s0,s0,0xc
   13990:	01c12083          	lw	ra,28(sp)
   13994:	0087e7b3          	or	a5,a5,s0
   13998:	01812403          	lw	s0,24(sp)
   1399c:	01f49493          	slli	s1,s1,0x1f
   139a0:	01012903          	lw	s2,16(sp)
   139a4:	00c12983          	lw	s3,12(sp)
   139a8:	00812a03          	lw	s4,8(sp)
   139ac:	00412a83          	lw	s5,4(sp)
   139b0:	0097e5b3          	or	a1,a5,s1
   139b4:	00070513          	mv	a0,a4
   139b8:	01412483          	lw	s1,20(sp)
   139bc:	02010113          	addi	sp,sp,32
   139c0:	00008067          	ret
   139c4:	00b00793          	li	a5,11
   139c8:	000a8713          	mv	a4,s5
   139cc:	f8f51ee3          	bne	a0,a5,13968 <__floatdidf+0x124>
   139d0:	43300993          	li	s3,1075
   139d4:	fb1ff06f          	j	13984 <__floatdidf+0x140>
   139d8:	ff550413          	addi	s0,a0,-11
   139dc:	00000713          	li	a4,0
   139e0:	008a9433          	sll	s0,s5,s0
   139e4:	fa1ff06f          	j	13984 <__floatdidf+0x140>
   139e8:	00800793          	li	a5,8
   139ec:	000a8513          	mv	a0,s5
   139f0:	eefa0ee3          	beq	s4,a5,138ec <__floatdidf+0xa8>
   139f4:	02800793          	li	a5,40
   139f8:	ff8a0713          	addi	a4,s4,-8
   139fc:	414787b3          	sub	a5,a5,s4
   13a00:	00e41433          	sll	s0,s0,a4
   13a04:	00fad7b3          	srl	a5,s5,a5
   13a08:	00ea9533          	sll	a0,s5,a4
   13a0c:	ff800737          	lui	a4,0xff800
   13a10:	0087e7b3          	or	a5,a5,s0
   13a14:	fff70713          	addi	a4,a4,-1 # ff7fffff <__BSS_END__+0xff7e3257>
   13a18:	00e7f7b3          	and	a5,a5,a4
   13a1c:	eddff06f          	j	138f8 <__floatdidf+0xb4>
   13a20:	00000493          	li	s1,0
   13a24:	00000413          	li	s0,0
   13a28:	00000713          	li	a4,0
   13a2c:	00000993          	li	s3,0
   13a30:	f55ff06f          	j	13984 <__floatdidf+0x140>

00013a34 <__addsf3>:
   13a34:	ff010113          	addi	sp,sp,-16
   13a38:	00800737          	lui	a4,0x800
   13a3c:	fff70713          	addi	a4,a4,-1 # 7fffff <__BSS_END__+0x7e3257>
   13a40:	0175d613          	srli	a2,a1,0x17
   13a44:	00812423          	sw	s0,8(sp)
   13a48:	01755413          	srli	s0,a0,0x17
   13a4c:	00a777b3          	and	a5,a4,a0
   13a50:	00912223          	sw	s1,4(sp)
   13a54:	00b77733          	and	a4,a4,a1
   13a58:	0ff47413          	zext.b	s0,s0
   13a5c:	0ff67613          	zext.b	a2,a2
   13a60:	00112623          	sw	ra,12(sp)
   13a64:	01212023          	sw	s2,0(sp)
   13a68:	01f55493          	srli	s1,a0,0x1f
   13a6c:	01f5d593          	srli	a1,a1,0x1f
   13a70:	00379793          	slli	a5,a5,0x3
   13a74:	00371713          	slli	a4,a4,0x3
   13a78:	40c406b3          	sub	a3,s0,a2
   13a7c:	1cb49c63          	bne	s1,a1,13c54 <__addsf3+0x220>
   13a80:	08d05e63          	blez	a3,13b1c <__addsf3+0xe8>
   13a84:	0ff00593          	li	a1,255
   13a88:	02061663          	bnez	a2,13ab4 <__addsf3+0x80>
   13a8c:	00070e63          	beqz	a4,13aa8 <__addsf3+0x74>
   13a90:	fff68613          	addi	a2,a3,-1
   13a94:	00061863          	bnez	a2,13aa4 <__addsf3+0x70>
   13a98:	00e787b3          	add	a5,a5,a4
   13a9c:	00100413          	li	s0,1
   13aa0:	04c0006f          	j	13aec <__addsf3+0xb8>
   13aa4:	02b69063          	bne	a3,a1,13ac4 <__addsf3+0x90>
   13aa8:	00068413          	mv	s0,a3
   13aac:	00078713          	mv	a4,a5
   13ab0:	2c00006f          	j	13d70 <__addsf3+0x33c>
   13ab4:	feb40ce3          	beq	s0,a1,13aac <__addsf3+0x78>
   13ab8:	04000637          	lui	a2,0x4000
   13abc:	00c76733          	or	a4,a4,a2
   13ac0:	00068613          	mv	a2,a3
   13ac4:	01b00593          	li	a1,27
   13ac8:	00100693          	li	a3,1
   13acc:	00c5ce63          	blt	a1,a2,13ae8 <__addsf3+0xb4>
   13ad0:	02000693          	li	a3,32
   13ad4:	40c686b3          	sub	a3,a3,a2
   13ad8:	00c755b3          	srl	a1,a4,a2
   13adc:	00d71733          	sll	a4,a4,a3
   13ae0:	00e03733          	snez	a4,a4
   13ae4:	00e5e6b3          	or	a3,a1,a4
   13ae8:	00d787b3          	add	a5,a5,a3
   13aec:	00579713          	slli	a4,a5,0x5
   13af0:	12075263          	bgez	a4,13c14 <__addsf3+0x1e0>
   13af4:	00140413          	addi	s0,s0,1
   13af8:	0ff00713          	li	a4,255
   13afc:	34e40e63          	beq	s0,a4,13e58 <__addsf3+0x424>
   13b00:	7e0006b7          	lui	a3,0x7e000
   13b04:	0017d713          	srli	a4,a5,0x1
   13b08:	fff68693          	addi	a3,a3,-1 # 7dffffff <__BSS_END__+0x7dfe3257>
   13b0c:	00d77733          	and	a4,a4,a3
   13b10:	0017f793          	andi	a5,a5,1
   13b14:	00f767b3          	or	a5,a4,a5
   13b18:	0fc0006f          	j	13c14 <__addsf3+0x1e0>
   13b1c:	06068463          	beqz	a3,13b84 <__addsf3+0x150>
   13b20:	408606b3          	sub	a3,a2,s0
   13b24:	0ff00513          	li	a0,255
   13b28:	00041e63          	bnez	s0,13b44 <__addsf3+0x110>
   13b2c:	32078063          	beqz	a5,13e4c <__addsf3+0x418>
   13b30:	fff68593          	addi	a1,a3,-1
   13b34:	f60582e3          	beqz	a1,13a98 <__addsf3+0x64>
   13b38:	00a69e63          	bne	a3,a0,13b54 <__addsf3+0x120>
   13b3c:	0ff00413          	li	s0,255
   13b40:	2300006f          	j	13d70 <__addsf3+0x33c>
   13b44:	fea60ce3          	beq	a2,a0,13b3c <__addsf3+0x108>
   13b48:	040005b7          	lui	a1,0x4000
   13b4c:	00b7e7b3          	or	a5,a5,a1
   13b50:	00068593          	mv	a1,a3
   13b54:	01b00513          	li	a0,27
   13b58:	00100693          	li	a3,1
   13b5c:	00b54e63          	blt	a0,a1,13b78 <__addsf3+0x144>
   13b60:	02000693          	li	a3,32
   13b64:	40b686b3          	sub	a3,a3,a1
   13b68:	00b7d533          	srl	a0,a5,a1
   13b6c:	00d797b3          	sll	a5,a5,a3
   13b70:	00f037b3          	snez	a5,a5
   13b74:	00f566b3          	or	a3,a0,a5
   13b78:	00e687b3          	add	a5,a3,a4
   13b7c:	00060413          	mv	s0,a2
   13b80:	f6dff06f          	j	13aec <__addsf3+0xb8>
   13b84:	00140693          	addi	a3,s0,1
   13b88:	0fe6f613          	andi	a2,a3,254
   13b8c:	06061a63          	bnez	a2,13c00 <__addsf3+0x1cc>
   13b90:	06041063          	bnez	s0,13bf0 <__addsf3+0x1bc>
   13b94:	2a078663          	beqz	a5,13e40 <__addsf3+0x40c>
   13b98:	08070a63          	beqz	a4,13c2c <__addsf3+0x1f8>
   13b9c:	00f70733          	add	a4,a4,a5
   13ba0:	00571793          	slli	a5,a4,0x5
   13ba4:	1c07d663          	bgez	a5,13d70 <__addsf3+0x33c>
   13ba8:	1f8007b7          	lui	a5,0x1f800
   13bac:	00375713          	srli	a4,a4,0x3
   13bb0:	fff78793          	addi	a5,a5,-1 # 1f7fffff <__BSS_END__+0x1f7e3257>
   13bb4:	00f777b3          	and	a5,a4,a5
   13bb8:	00100413          	li	s0,1
   13bbc:	0ff47413          	zext.b	s0,s0
   13bc0:	00979793          	slli	a5,a5,0x9
   13bc4:	01741413          	slli	s0,s0,0x17
   13bc8:	0097d793          	srli	a5,a5,0x9
   13bcc:	00f46433          	or	s0,s0,a5
   13bd0:	01f49513          	slli	a0,s1,0x1f
   13bd4:	00c12083          	lw	ra,12(sp)
   13bd8:	00a46533          	or	a0,s0,a0
   13bdc:	00812403          	lw	s0,8(sp)
   13be0:	00412483          	lw	s1,4(sp)
   13be4:	00012903          	lw	s2,0(sp)
   13be8:	01010113          	addi	sp,sp,16
   13bec:	00008067          	ret
   13bf0:	f40786e3          	beqz	a5,13b3c <__addsf3+0x108>
   13bf4:	1c071863          	bnez	a4,13dc4 <__addsf3+0x390>
   13bf8:	00078713          	mv	a4,a5
   13bfc:	f41ff06f          	j	13b3c <__addsf3+0x108>
   13c00:	0ff00613          	li	a2,255
   13c04:	24c68863          	beq	a3,a2,13e54 <__addsf3+0x420>
   13c08:	00e78733          	add	a4,a5,a4
   13c0c:	00175793          	srli	a5,a4,0x1
   13c10:	00068413          	mv	s0,a3
   13c14:	0077f713          	andi	a4,a5,7
   13c18:	00070a63          	beqz	a4,13c2c <__addsf3+0x1f8>
   13c1c:	00f7f713          	andi	a4,a5,15
   13c20:	00400693          	li	a3,4
   13c24:	00d70463          	beq	a4,a3,13c2c <__addsf3+0x1f8>
   13c28:	00d787b3          	add	a5,a5,a3
   13c2c:	00579713          	slli	a4,a5,0x5
   13c30:	e6075ee3          	bgez	a4,13aac <__addsf3+0x78>
   13c34:	00140413          	addi	s0,s0,1
   13c38:	0ff00713          	li	a4,255
   13c3c:	20e40e63          	beq	s0,a4,13e58 <__addsf3+0x424>
   13c40:	1f800737          	lui	a4,0x1f800
   13c44:	0037d793          	srli	a5,a5,0x3
   13c48:	fff70713          	addi	a4,a4,-1 # 1f7fffff <__BSS_END__+0x1f7e3257>
   13c4c:	00e7f7b3          	and	a5,a5,a4
   13c50:	f6dff06f          	j	13bbc <__addsf3+0x188>
   13c54:	08d05063          	blez	a3,13cd4 <__addsf3+0x2a0>
   13c58:	06061263          	bnez	a2,13cbc <__addsf3+0x288>
   13c5c:	e40706e3          	beqz	a4,13aa8 <__addsf3+0x74>
   13c60:	fff68613          	addi	a2,a3,-1
   13c64:	00061863          	bnez	a2,13c74 <__addsf3+0x240>
   13c68:	40e787b3          	sub	a5,a5,a4
   13c6c:	00100413          	li	s0,1
   13c70:	0340006f          	j	13ca4 <__addsf3+0x270>
   13c74:	0ff00593          	li	a1,255
   13c78:	e2b688e3          	beq	a3,a1,13aa8 <__addsf3+0x74>
   13c7c:	01b00593          	li	a1,27
   13c80:	00100693          	li	a3,1
   13c84:	00c5ce63          	blt	a1,a2,13ca0 <__addsf3+0x26c>
   13c88:	02000693          	li	a3,32
   13c8c:	40c686b3          	sub	a3,a3,a2
   13c90:	00c755b3          	srl	a1,a4,a2
   13c94:	00d71733          	sll	a4,a4,a3
   13c98:	00e03733          	snez	a4,a4
   13c9c:	00e5e6b3          	or	a3,a1,a4
   13ca0:	40d787b3          	sub	a5,a5,a3
   13ca4:	00579713          	slli	a4,a5,0x5
   13ca8:	f60756e3          	bgez	a4,13c14 <__addsf3+0x1e0>
   13cac:	04000937          	lui	s2,0x4000
   13cb0:	fff90913          	addi	s2,s2,-1 # 3ffffff <__BSS_END__+0x3fe3257>
   13cb4:	0127f933          	and	s2,a5,s2
   13cb8:	1300006f          	j	13de8 <__addsf3+0x3b4>
   13cbc:	0ff00613          	li	a2,255
   13cc0:	dec406e3          	beq	s0,a2,13aac <__addsf3+0x78>
   13cc4:	04000637          	lui	a2,0x4000
   13cc8:	00c76733          	or	a4,a4,a2
   13ccc:	00068613          	mv	a2,a3
   13cd0:	fadff06f          	j	13c7c <__addsf3+0x248>
   13cd4:	06068e63          	beqz	a3,13d50 <__addsf3+0x31c>
   13cd8:	408606b3          	sub	a3,a2,s0
   13cdc:	02041663          	bnez	s0,13d08 <__addsf3+0x2d4>
   13ce0:	16078463          	beqz	a5,13e48 <__addsf3+0x414>
   13ce4:	fff68513          	addi	a0,a3,-1
   13ce8:	00051863          	bnez	a0,13cf8 <__addsf3+0x2c4>
   13cec:	40f707b3          	sub	a5,a4,a5
   13cf0:	00058493          	mv	s1,a1
   13cf4:	f79ff06f          	j	13c6c <__addsf3+0x238>
   13cf8:	0ff00813          	li	a6,255
   13cfc:	03069063          	bne	a3,a6,13d1c <__addsf3+0x2e8>
   13d00:	00058493          	mv	s1,a1
   13d04:	e39ff06f          	j	13b3c <__addsf3+0x108>
   13d08:	0ff00513          	li	a0,255
   13d0c:	fea60ae3          	beq	a2,a0,13d00 <__addsf3+0x2cc>
   13d10:	04000537          	lui	a0,0x4000
   13d14:	00a7e7b3          	or	a5,a5,a0
   13d18:	00068513          	mv	a0,a3
   13d1c:	01b00813          	li	a6,27
   13d20:	00100693          	li	a3,1
   13d24:	00a84e63          	blt	a6,a0,13d40 <__addsf3+0x30c>
   13d28:	02000693          	li	a3,32
   13d2c:	40a686b3          	sub	a3,a3,a0
   13d30:	00a7d833          	srl	a6,a5,a0
   13d34:	00d797b3          	sll	a5,a5,a3
   13d38:	00f037b3          	snez	a5,a5
   13d3c:	00f866b3          	or	a3,a6,a5
   13d40:	40d707b3          	sub	a5,a4,a3
   13d44:	00060413          	mv	s0,a2
   13d48:	00058493          	mv	s1,a1
   13d4c:	f59ff06f          	j	13ca4 <__addsf3+0x270>
   13d50:	00140693          	addi	a3,s0,1
   13d54:	0fe6f693          	andi	a3,a3,254
   13d58:	06069e63          	bnez	a3,13dd4 <__addsf3+0x3a0>
   13d5c:	06041263          	bnez	s0,13dc0 <__addsf3+0x38c>
   13d60:	02079463          	bnez	a5,13d88 <__addsf3+0x354>
   13d64:	00000493          	li	s1,0
   13d68:	e4070ae3          	beqz	a4,13bbc <__addsf3+0x188>
   13d6c:	00058493          	mv	s1,a1
   13d70:	00375793          	srli	a5,a4,0x3
   13d74:	0ff00713          	li	a4,255
   13d78:	e4e412e3          	bne	s0,a4,13bbc <__addsf3+0x188>
   13d7c:	e40780e3          	beqz	a5,13bbc <__addsf3+0x188>
   13d80:	004007b7          	lui	a5,0x400
   13d84:	0340006f          	j	13db8 <__addsf3+0x384>
   13d88:	ea0702e3          	beqz	a4,13c2c <__addsf3+0x1f8>
   13d8c:	40e786b3          	sub	a3,a5,a4
   13d90:	00569613          	slli	a2,a3,0x5
   13d94:	00065c63          	bgez	a2,13dac <__addsf3+0x378>
   13d98:	40f707b3          	sub	a5,a4,a5
   13d9c:	00058493          	mv	s1,a1
   13da0:	00000413          	li	s0,0
   13da4:	e0078ce3          	beqz	a5,13bbc <__addsf3+0x188>
   13da8:	e6dff06f          	j	13c14 <__addsf3+0x1e0>
   13dac:	00068713          	mv	a4,a3
   13db0:	fc0690e3          	bnez	a3,13d70 <__addsf3+0x33c>
   13db4:	00000793          	li	a5,0
   13db8:	00000493          	li	s1,0
   13dbc:	e01ff06f          	j	13bbc <__addsf3+0x188>
   13dc0:	e2079ae3          	bnez	a5,13bf4 <__addsf3+0x1c0>
   13dc4:	00000493          	li	s1,0
   13dc8:	0ff00413          	li	s0,255
   13dcc:	004007b7          	lui	a5,0x400
   13dd0:	dedff06f          	j	13bbc <__addsf3+0x188>
   13dd4:	40e78933          	sub	s2,a5,a4
   13dd8:	00591693          	slli	a3,s2,0x5
   13ddc:	0406d263          	bgez	a3,13e20 <__addsf3+0x3ec>
   13de0:	40f70933          	sub	s2,a4,a5
   13de4:	00058493          	mv	s1,a1
   13de8:	00090513          	mv	a0,s2
   13dec:	114010ef          	jal	14f00 <__clzsi2>
   13df0:	ffb50513          	addi	a0,a0,-5 # 3fffffb <__BSS_END__+0x3fe3253>
   13df4:	00a91933          	sll	s2,s2,a0
   13df8:	02854a63          	blt	a0,s0,13e2c <__addsf3+0x3f8>
   13dfc:	40850533          	sub	a0,a0,s0
   13e00:	00150513          	addi	a0,a0,1
   13e04:	02000713          	li	a4,32
   13e08:	40a70733          	sub	a4,a4,a0
   13e0c:	00a957b3          	srl	a5,s2,a0
   13e10:	00e91933          	sll	s2,s2,a4
   13e14:	01203933          	snez	s2,s2
   13e18:	0127e7b3          	or	a5,a5,s2
   13e1c:	f85ff06f          	j	13da0 <__addsf3+0x36c>
   13e20:	fc0914e3          	bnez	s2,13de8 <__addsf3+0x3b4>
   13e24:	00000413          	li	s0,0
   13e28:	f8dff06f          	j	13db4 <__addsf3+0x380>
   13e2c:	fc0007b7          	lui	a5,0xfc000
   13e30:	fff78793          	addi	a5,a5,-1 # fbffffff <__BSS_END__+0xfbfe3257>
   13e34:	40a40433          	sub	s0,s0,a0
   13e38:	00f977b3          	and	a5,s2,a5
   13e3c:	dd9ff06f          	j	13c14 <__addsf3+0x1e0>
   13e40:	00070793          	mv	a5,a4
   13e44:	f5dff06f          	j	13da0 <__addsf3+0x36c>
   13e48:	00058493          	mv	s1,a1
   13e4c:	00068413          	mv	s0,a3
   13e50:	f21ff06f          	j	13d70 <__addsf3+0x33c>
   13e54:	00068413          	mv	s0,a3
   13e58:	00000793          	li	a5,0
   13e5c:	d61ff06f          	j	13bbc <__addsf3+0x188>

00013e60 <__divsf3>:
   13e60:	fd010113          	addi	sp,sp,-48
   13e64:	02912223          	sw	s1,36(sp)
   13e68:	01755493          	srli	s1,a0,0x17
   13e6c:	01412c23          	sw	s4,24(sp)
   13e70:	01512a23          	sw	s5,20(sp)
   13e74:	01712623          	sw	s7,12(sp)
   13e78:	00951a13          	slli	s4,a0,0x9
   13e7c:	02112623          	sw	ra,44(sp)
   13e80:	02812423          	sw	s0,40(sp)
   13e84:	03212023          	sw	s2,32(sp)
   13e88:	01312e23          	sw	s3,28(sp)
   13e8c:	01612823          	sw	s6,16(sp)
   13e90:	01812423          	sw	s8,8(sp)
   13e94:	0ff4f493          	zext.b	s1,s1
   13e98:	00058b93          	mv	s7,a1
   13e9c:	009a5a13          	srli	s4,s4,0x9
   13ea0:	01f55a93          	srli	s5,a0,0x1f
   13ea4:	08048463          	beqz	s1,13f2c <__divsf3+0xcc>
   13ea8:	0ff00793          	li	a5,255
   13eac:	0af48063          	beq	s1,a5,13f4c <__divsf3+0xec>
   13eb0:	003a1a13          	slli	s4,s4,0x3
   13eb4:	040007b7          	lui	a5,0x4000
   13eb8:	00fa6a33          	or	s4,s4,a5
   13ebc:	f8148493          	addi	s1,s1,-127 # 7fff81 <__BSS_END__+0x7e31d9>
   13ec0:	00000b13          	li	s6,0
   13ec4:	017bd793          	srli	a5,s7,0x17
   13ec8:	009b9413          	slli	s0,s7,0x9
   13ecc:	0ff7f793          	zext.b	a5,a5
   13ed0:	00945413          	srli	s0,s0,0x9
   13ed4:	01fbdb93          	srli	s7,s7,0x1f
   13ed8:	08078863          	beqz	a5,13f68 <__divsf3+0x108>
   13edc:	0ff00713          	li	a4,255
   13ee0:	0ae78463          	beq	a5,a4,13f88 <__divsf3+0x128>
   13ee4:	00341413          	slli	s0,s0,0x3
   13ee8:	04000737          	lui	a4,0x4000
   13eec:	00e46433          	or	s0,s0,a4
   13ef0:	f8178793          	addi	a5,a5,-127 # 3ffff81 <__BSS_END__+0x3fe31d9>
   13ef4:	00000713          	li	a4,0
   13ef8:	40f489b3          	sub	s3,s1,a5
   13efc:	002b1793          	slli	a5,s6,0x2
   13f00:	00e7e7b3          	or	a5,a5,a4
   13f04:	fff78793          	addi	a5,a5,-1
   13f08:	00e00693          	li	a3,14
   13f0c:	017ac933          	xor	s2,s5,s7
   13f10:	08f6ea63          	bltu	a3,a5,13fa4 <__divsf3+0x144>
   13f14:	0001b6b7          	lui	a3,0x1b
   13f18:	00279793          	slli	a5,a5,0x2
   13f1c:	ab068693          	addi	a3,a3,-1360 # 1aab0 <_exit+0x27c>
   13f20:	00d787b3          	add	a5,a5,a3
   13f24:	0007a783          	lw	a5,0(a5)
   13f28:	00078067          	jr	a5
   13f2c:	020a0863          	beqz	s4,13f5c <__divsf3+0xfc>
   13f30:	000a0513          	mv	a0,s4
   13f34:	7cd000ef          	jal	14f00 <__clzsi2>
   13f38:	ffb50793          	addi	a5,a0,-5
   13f3c:	f8a00493          	li	s1,-118
   13f40:	00fa1a33          	sll	s4,s4,a5
   13f44:	40a484b3          	sub	s1,s1,a0
   13f48:	f79ff06f          	j	13ec0 <__divsf3+0x60>
   13f4c:	00200b13          	li	s6,2
   13f50:	f60a0ae3          	beqz	s4,13ec4 <__divsf3+0x64>
   13f54:	00300b13          	li	s6,3
   13f58:	f6dff06f          	j	13ec4 <__divsf3+0x64>
   13f5c:	00000493          	li	s1,0
   13f60:	00100b13          	li	s6,1
   13f64:	f61ff06f          	j	13ec4 <__divsf3+0x64>
   13f68:	02040863          	beqz	s0,13f98 <__divsf3+0x138>
   13f6c:	00040513          	mv	a0,s0
   13f70:	791000ef          	jal	14f00 <__clzsi2>
   13f74:	ffb50793          	addi	a5,a0,-5
   13f78:	00f41433          	sll	s0,s0,a5
   13f7c:	f8a00793          	li	a5,-118
   13f80:	40a787b3          	sub	a5,a5,a0
   13f84:	f71ff06f          	j	13ef4 <__divsf3+0x94>
   13f88:	00200713          	li	a4,2
   13f8c:	f60406e3          	beqz	s0,13ef8 <__divsf3+0x98>
   13f90:	00300713          	li	a4,3
   13f94:	f65ff06f          	j	13ef8 <__divsf3+0x98>
   13f98:	00000793          	li	a5,0
   13f9c:	00100713          	li	a4,1
   13fa0:	f59ff06f          	j	13ef8 <__divsf3+0x98>
   13fa4:	00541b13          	slli	s6,s0,0x5
   13fa8:	148a7a63          	bgeu	s4,s0,140fc <__divsf3+0x29c>
   13fac:	fff98993          	addi	s3,s3,-1
   13fb0:	00000413          	li	s0,0
   13fb4:	010b5a93          	srli	s5,s6,0x10
   13fb8:	000a8593          	mv	a1,s5
   13fbc:	010b1c13          	slli	s8,s6,0x10
   13fc0:	000a0513          	mv	a0,s4
   13fc4:	619000ef          	jal	14ddc <__hidden___udivsi3>
   13fc8:	010c5c13          	srli	s8,s8,0x10
   13fcc:	00050593          	mv	a1,a0
   13fd0:	00050493          	mv	s1,a0
   13fd4:	000c0513          	mv	a0,s8
   13fd8:	54d000ef          	jal	14d24 <__mulsi3>
   13fdc:	00050b93          	mv	s7,a0
   13fe0:	000a8593          	mv	a1,s5
   13fe4:	000a0513          	mv	a0,s4
   13fe8:	63d000ef          	jal	14e24 <__umodsi3>
   13fec:	01051513          	slli	a0,a0,0x10
   13ff0:	01045793          	srli	a5,s0,0x10
   13ff4:	00a7e7b3          	or	a5,a5,a0
   13ff8:	0177fa63          	bgeu	a5,s7,1400c <__divsf3+0x1ac>
   13ffc:	00fb07b3          	add	a5,s6,a5
   14000:	0177f463          	bgeu	a5,s7,14008 <__divsf3+0x1a8>
   14004:	1167f263          	bgeu	a5,s6,14108 <__divsf3+0x2a8>
   14008:	fff48493          	addi	s1,s1,-1
   1400c:	41778433          	sub	s0,a5,s7
   14010:	000a8593          	mv	a1,s5
   14014:	00040513          	mv	a0,s0
   14018:	5c5000ef          	jal	14ddc <__hidden___udivsi3>
   1401c:	00050593          	mv	a1,a0
   14020:	00050a13          	mv	s4,a0
   14024:	000c0513          	mv	a0,s8
   14028:	4fd000ef          	jal	14d24 <__mulsi3>
   1402c:	00050b93          	mv	s7,a0
   14030:	000a8593          	mv	a1,s5
   14034:	00040513          	mv	a0,s0
   14038:	5ed000ef          	jal	14e24 <__umodsi3>
   1403c:	01051793          	slli	a5,a0,0x10
   14040:	0177fe63          	bgeu	a5,s7,1405c <__divsf3+0x1fc>
   14044:	01678733          	add	a4,a5,s6
   14048:	00f736b3          	sltu	a3,a4,a5
   1404c:	00070793          	mv	a5,a4
   14050:	01777463          	bgeu	a4,s7,14058 <__divsf3+0x1f8>
   14054:	0c068063          	beqz	a3,14114 <__divsf3+0x2b4>
   14058:	fffa0a13          	addi	s4,s4,-1
   1405c:	01049413          	slli	s0,s1,0x10
   14060:	417787b3          	sub	a5,a5,s7
   14064:	01446433          	or	s0,s0,s4
   14068:	00f037b3          	snez	a5,a5
   1406c:	00f46433          	or	s0,s0,a5
   14070:	07f98713          	addi	a4,s3,127
   14074:	0ee05263          	blez	a4,14158 <__divsf3+0x2f8>
   14078:	00747793          	andi	a5,s0,7
   1407c:	00078a63          	beqz	a5,14090 <__divsf3+0x230>
   14080:	00f47793          	andi	a5,s0,15
   14084:	00400693          	li	a3,4
   14088:	00d78463          	beq	a5,a3,14090 <__divsf3+0x230>
   1408c:	00d40433          	add	s0,s0,a3
   14090:	00441793          	slli	a5,s0,0x4
   14094:	0007da63          	bgez	a5,140a8 <__divsf3+0x248>
   14098:	f80007b7          	lui	a5,0xf8000
   1409c:	fff78793          	addi	a5,a5,-1 # f7ffffff <__BSS_END__+0xf7fe3257>
   140a0:	00f47433          	and	s0,s0,a5
   140a4:	08098713          	addi	a4,s3,128
   140a8:	0fe00793          	li	a5,254
   140ac:	10e7ce63          	blt	a5,a4,141c8 <__divsf3+0x368>
   140b0:	00345793          	srli	a5,s0,0x3
   140b4:	02c12083          	lw	ra,44(sp)
   140b8:	02812403          	lw	s0,40(sp)
   140bc:	00979793          	slli	a5,a5,0x9
   140c0:	01771713          	slli	a4,a4,0x17
   140c4:	0097d793          	srli	a5,a5,0x9
   140c8:	01f91513          	slli	a0,s2,0x1f
   140cc:	00f76733          	or	a4,a4,a5
   140d0:	02412483          	lw	s1,36(sp)
   140d4:	02012903          	lw	s2,32(sp)
   140d8:	01c12983          	lw	s3,28(sp)
   140dc:	01812a03          	lw	s4,24(sp)
   140e0:	01412a83          	lw	s5,20(sp)
   140e4:	01012b03          	lw	s6,16(sp)
   140e8:	00c12b83          	lw	s7,12(sp)
   140ec:	00812c03          	lw	s8,8(sp)
   140f0:	00a76533          	or	a0,a4,a0
   140f4:	03010113          	addi	sp,sp,48
   140f8:	00008067          	ret
   140fc:	01fa1413          	slli	s0,s4,0x1f
   14100:	001a5a13          	srli	s4,s4,0x1
   14104:	eb1ff06f          	j	13fb4 <__divsf3+0x154>
   14108:	ffe48493          	addi	s1,s1,-2
   1410c:	016787b3          	add	a5,a5,s6
   14110:	efdff06f          	j	1400c <__divsf3+0x1ac>
   14114:	ffea0a13          	addi	s4,s4,-2
   14118:	016707b3          	add	a5,a4,s6
   1411c:	f41ff06f          	j	1405c <__divsf3+0x1fc>
   14120:	000b8913          	mv	s2,s7
   14124:	00200793          	li	a5,2
   14128:	0af70063          	beq	a4,a5,141c8 <__divsf3+0x368>
   1412c:	00300793          	li	a5,3
   14130:	08f70463          	beq	a4,a5,141b8 <__divsf3+0x358>
   14134:	00100793          	li	a5,1
   14138:	f2f71ce3          	bne	a4,a5,14070 <__divsf3+0x210>
   1413c:	00000793          	li	a5,0
   14140:	00000713          	li	a4,0
   14144:	f71ff06f          	j	140b4 <__divsf3+0x254>
   14148:	000a8913          	mv	s2,s5
   1414c:	000a0413          	mv	s0,s4
   14150:	000b0713          	mv	a4,s6
   14154:	fd1ff06f          	j	14124 <__divsf3+0x2c4>
   14158:	04070c63          	beqz	a4,141b0 <__divsf3+0x350>
   1415c:	fe600793          	li	a5,-26
   14160:	fcf74ee3          	blt	a4,a5,1413c <__divsf3+0x2dc>
   14164:	00100793          	li	a5,1
   14168:	40e787b3          	sub	a5,a5,a4
   1416c:	09e98493          	addi	s1,s3,158
   14170:	00f457b3          	srl	a5,s0,a5
   14174:	00941433          	sll	s0,s0,s1
   14178:	00803433          	snez	s0,s0
   1417c:	0087e7b3          	or	a5,a5,s0
   14180:	0077f713          	andi	a4,a5,7
   14184:	00070a63          	beqz	a4,14198 <__divsf3+0x338>
   14188:	00f7f713          	andi	a4,a5,15
   1418c:	00400693          	li	a3,4
   14190:	00d70463          	beq	a4,a3,14198 <__divsf3+0x338>
   14194:	00d787b3          	add	a5,a5,a3
   14198:	00579713          	slli	a4,a5,0x5
   1419c:	0037d793          	srli	a5,a5,0x3
   141a0:	fa0750e3          	bgez	a4,14140 <__divsf3+0x2e0>
   141a4:	00000793          	li	a5,0
   141a8:	00100713          	li	a4,1
   141ac:	f09ff06f          	j	140b4 <__divsf3+0x254>
   141b0:	00100793          	li	a5,1
   141b4:	fb9ff06f          	j	1416c <__divsf3+0x30c>
   141b8:	004007b7          	lui	a5,0x400
   141bc:	0ff00713          	li	a4,255
   141c0:	00000913          	li	s2,0
   141c4:	ef1ff06f          	j	140b4 <__divsf3+0x254>
   141c8:	00000793          	li	a5,0
   141cc:	0ff00713          	li	a4,255
   141d0:	ee5ff06f          	j	140b4 <__divsf3+0x254>

000141d4 <__eqsf2>:
   141d4:	00800737          	lui	a4,0x800
   141d8:	fff70713          	addi	a4,a4,-1 # 7fffff <__BSS_END__+0x7e3257>
   141dc:	00a77633          	and	a2,a4,a0
   141e0:	01755793          	srli	a5,a0,0x17
   141e4:	0ff7f793          	zext.b	a5,a5
   141e8:	01f55693          	srli	a3,a0,0x1f
   141ec:	00b77733          	and	a4,a4,a1
   141f0:	01f5d893          	srli	a7,a1,0x1f
   141f4:	00060863          	beqz	a2,14204 <__eqsf2+0x30>
   141f8:	f0178813          	addi	a6,a5,-255 # 3fff01 <__BSS_END__+0x3e3159>
   141fc:	00100513          	li	a0,1
   14200:	02080e63          	beqz	a6,1423c <__eqsf2+0x68>
   14204:	0175d593          	srli	a1,a1,0x17
   14208:	0ff5f593          	zext.b	a1,a1
   1420c:	00070863          	beqz	a4,1421c <__eqsf2+0x48>
   14210:	f0158813          	addi	a6,a1,-255 # 3ffff01 <__BSS_END__+0x3fe3159>
   14214:	00100513          	li	a0,1
   14218:	02080263          	beqz	a6,1423c <__eqsf2+0x68>
   1421c:	00e61e63          	bne	a2,a4,14238 <__eqsf2+0x64>
   14220:	00b79c63          	bne	a5,a1,14238 <__eqsf2+0x64>
   14224:	00000513          	li	a0,0
   14228:	01168a63          	beq	a3,a7,1423c <__eqsf2+0x68>
   1422c:	00c7e7b3          	or	a5,a5,a2
   14230:	00f03533          	snez	a0,a5
   14234:	00008067          	ret
   14238:	00100513          	li	a0,1
   1423c:	00008067          	ret

00014240 <__gesf2>:
   14240:	00800737          	lui	a4,0x800
   14244:	fff70713          	addi	a4,a4,-1 # 7fffff <__BSS_END__+0x7e3257>
   14248:	00a77633          	and	a2,a4,a0
   1424c:	01755693          	srli	a3,a0,0x17
   14250:	0ff6f693          	zext.b	a3,a3
   14254:	01f55793          	srli	a5,a0,0x1f
   14258:	00b77733          	and	a4,a4,a1
   1425c:	01f5d893          	srli	a7,a1,0x1f
   14260:	00060863          	beqz	a2,14270 <__gesf2+0x30>
   14264:	f0168813          	addi	a6,a3,-255
   14268:	ffe00513          	li	a0,-2
   1426c:	06080463          	beqz	a6,142d4 <__gesf2+0x94>
   14270:	0175d593          	srli	a1,a1,0x17
   14274:	0ff5f593          	zext.b	a1,a1
   14278:	00070863          	beqz	a4,14288 <__gesf2+0x48>
   1427c:	f0158813          	addi	a6,a1,-255
   14280:	ffe00513          	li	a0,-2
   14284:	04080863          	beqz	a6,142d4 <__gesf2+0x94>
   14288:	00c6e533          	or	a0,a3,a2
   1428c:	00e5e833          	or	a6,a1,a4
   14290:	00051a63          	bnez	a0,142a4 <__gesf2+0x64>
   14294:	04080063          	beqz	a6,142d4 <__gesf2+0x94>
   14298:	00189513          	slli	a0,a7,0x1
   1429c:	fff50513          	addi	a0,a0,-1
   142a0:	00008067          	ret
   142a4:	00081863          	bnez	a6,142b4 <__gesf2+0x74>
   142a8:	40f007b3          	neg	a5,a5
   142ac:	0017e513          	ori	a0,a5,1
   142b0:	00008067          	ret
   142b4:	ff179ae3          	bne	a5,a7,142a8 <__gesf2+0x68>
   142b8:	fed5c8e3          	blt	a1,a3,142a8 <__gesf2+0x68>
   142bc:	00b6d663          	bge	a3,a1,142c8 <__gesf2+0x88>
   142c0:	00179513          	slli	a0,a5,0x1
   142c4:	fd9ff06f          	j	1429c <__gesf2+0x5c>
   142c8:	fec760e3          	bltu	a4,a2,142a8 <__gesf2+0x68>
   142cc:	00000513          	li	a0,0
   142d0:	fee668e3          	bltu	a2,a4,142c0 <__gesf2+0x80>
   142d4:	00008067          	ret

000142d8 <__lesf2>:
   142d8:	00800737          	lui	a4,0x800
   142dc:	fff70713          	addi	a4,a4,-1 # 7fffff <__BSS_END__+0x7e3257>
   142e0:	00a77633          	and	a2,a4,a0
   142e4:	01755693          	srli	a3,a0,0x17
   142e8:	0ff6f693          	zext.b	a3,a3
   142ec:	01f55793          	srli	a5,a0,0x1f
   142f0:	00b77733          	and	a4,a4,a1
   142f4:	01f5d893          	srli	a7,a1,0x1f
   142f8:	00060863          	beqz	a2,14308 <__lesf2+0x30>
   142fc:	f0168813          	addi	a6,a3,-255
   14300:	00200513          	li	a0,2
   14304:	06080463          	beqz	a6,1436c <__lesf2+0x94>
   14308:	0175d593          	srli	a1,a1,0x17
   1430c:	0ff5f593          	zext.b	a1,a1
   14310:	00070863          	beqz	a4,14320 <__lesf2+0x48>
   14314:	f0158813          	addi	a6,a1,-255
   14318:	00200513          	li	a0,2
   1431c:	04080863          	beqz	a6,1436c <__lesf2+0x94>
   14320:	00c6e533          	or	a0,a3,a2
   14324:	00e5e833          	or	a6,a1,a4
   14328:	00051a63          	bnez	a0,1433c <__lesf2+0x64>
   1432c:	04080063          	beqz	a6,1436c <__lesf2+0x94>
   14330:	00189513          	slli	a0,a7,0x1
   14334:	fff50513          	addi	a0,a0,-1
   14338:	00008067          	ret
   1433c:	00081863          	bnez	a6,1434c <__lesf2+0x74>
   14340:	40f007b3          	neg	a5,a5
   14344:	0017e513          	ori	a0,a5,1
   14348:	00008067          	ret
   1434c:	ff179ae3          	bne	a5,a7,14340 <__lesf2+0x68>
   14350:	fed5c8e3          	blt	a1,a3,14340 <__lesf2+0x68>
   14354:	00b6d663          	bge	a3,a1,14360 <__lesf2+0x88>
   14358:	00179513          	slli	a0,a5,0x1
   1435c:	fd9ff06f          	j	14334 <__lesf2+0x5c>
   14360:	fec760e3          	bltu	a4,a2,14340 <__lesf2+0x68>
   14364:	00000513          	li	a0,0
   14368:	fee668e3          	bltu	a2,a4,14358 <__lesf2+0x80>
   1436c:	00008067          	ret

00014370 <__mulsf3>:
   14370:	fe010113          	addi	sp,sp,-32
   14374:	01212823          	sw	s2,16(sp)
   14378:	01755913          	srli	s2,a0,0x17
   1437c:	00912a23          	sw	s1,20(sp)
   14380:	01312623          	sw	s3,12(sp)
   14384:	01512223          	sw	s5,4(sp)
   14388:	00951493          	slli	s1,a0,0x9
   1438c:	00112e23          	sw	ra,28(sp)
   14390:	00812c23          	sw	s0,24(sp)
   14394:	01412423          	sw	s4,8(sp)
   14398:	0ff97913          	zext.b	s2,s2
   1439c:	00058a93          	mv	s5,a1
   143a0:	0094d493          	srli	s1,s1,0x9
   143a4:	01f55993          	srli	s3,a0,0x1f
   143a8:	1a090a63          	beqz	s2,1455c <__mulsf3+0x1ec>
   143ac:	0ff00793          	li	a5,255
   143b0:	1cf90663          	beq	s2,a5,1457c <__mulsf3+0x20c>
   143b4:	00349493          	slli	s1,s1,0x3
   143b8:	040007b7          	lui	a5,0x4000
   143bc:	00f4e4b3          	or	s1,s1,a5
   143c0:	f8190913          	addi	s2,s2,-127
   143c4:	00000a13          	li	s4,0
   143c8:	017ad793          	srli	a5,s5,0x17
   143cc:	009a9413          	slli	s0,s5,0x9
   143d0:	0ff7f793          	zext.b	a5,a5
   143d4:	00945413          	srli	s0,s0,0x9
   143d8:	01fada93          	srli	s5,s5,0x1f
   143dc:	1a078e63          	beqz	a5,14598 <__mulsf3+0x228>
   143e0:	0ff00713          	li	a4,255
   143e4:	1ce78a63          	beq	a5,a4,145b8 <__mulsf3+0x248>
   143e8:	00341413          	slli	s0,s0,0x3
   143ec:	04000737          	lui	a4,0x4000
   143f0:	00e46433          	or	s0,s0,a4
   143f4:	f8178793          	addi	a5,a5,-127 # 3ffff81 <__BSS_END__+0x3fe31d9>
   143f8:	00000713          	li	a4,0
   143fc:	00f90933          	add	s2,s2,a5
   14400:	002a1793          	slli	a5,s4,0x2
   14404:	00e7e7b3          	or	a5,a5,a4
   14408:	00a00693          	li	a3,10
   1440c:	00190813          	addi	a6,s2,1
   14410:	20f6c463          	blt	a3,a5,14618 <__mulsf3+0x2a8>
   14414:	00200613          	li	a2,2
   14418:	0159c9b3          	xor	s3,s3,s5
   1441c:	00100693          	li	a3,1
   14420:	1af64a63          	blt	a2,a5,145d4 <__mulsf3+0x264>
   14424:	fff78793          	addi	a5,a5,-1
   14428:	1cf6f663          	bgeu	a3,a5,145f4 <__mulsf3+0x284>
   1442c:	01045793          	srli	a5,s0,0x10
   14430:	01041413          	slli	s0,s0,0x10
   14434:	01049513          	slli	a0,s1,0x10
   14438:	01045413          	srli	s0,s0,0x10
   1443c:	0104de13          	srli	t3,s1,0x10
   14440:	01055513          	srli	a0,a0,0x10
   14444:	00040593          	mv	a1,s0
   14448:	0dd000ef          	jal	14d24 <__mulsi3>
   1444c:	00050893          	mv	a7,a0
   14450:	01049513          	slli	a0,s1,0x10
   14454:	01055513          	srli	a0,a0,0x10
   14458:	00078593          	mv	a1,a5
   1445c:	0c9000ef          	jal	14d24 <__mulsi3>
   14460:	00050713          	mv	a4,a0
   14464:	00040593          	mv	a1,s0
   14468:	000e0513          	mv	a0,t3
   1446c:	0b9000ef          	jal	14d24 <__mulsi3>
   14470:	00050313          	mv	t1,a0
   14474:	00078593          	mv	a1,a5
   14478:	000e0513          	mv	a0,t3
   1447c:	0a9000ef          	jal	14d24 <__mulsi3>
   14480:	0108d793          	srli	a5,a7,0x10
   14484:	00670733          	add	a4,a4,t1
   14488:	00e787b3          	add	a5,a5,a4
   1448c:	0067f663          	bgeu	a5,t1,14498 <__mulsf3+0x128>
   14490:	00010737          	lui	a4,0x10
   14494:	00e50533          	add	a0,a0,a4
   14498:	01089893          	slli	a7,a7,0x10
   1449c:	01079713          	slli	a4,a5,0x10
   144a0:	0108d893          	srli	a7,a7,0x10
   144a4:	01170733          	add	a4,a4,a7
   144a8:	0107d793          	srli	a5,a5,0x10
   144ac:	00671413          	slli	s0,a4,0x6
   144b0:	00a787b3          	add	a5,a5,a0
   144b4:	01a75713          	srli	a4,a4,0x1a
   144b8:	00679793          	slli	a5,a5,0x6
   144bc:	00803433          	snez	s0,s0
   144c0:	00e46433          	or	s0,s0,a4
   144c4:	00479713          	slli	a4,a5,0x4
   144c8:	0087e433          	or	s0,a5,s0
   144cc:	16075463          	bgez	a4,14634 <__mulsf3+0x2c4>
   144d0:	00145793          	srli	a5,s0,0x1
   144d4:	00147413          	andi	s0,s0,1
   144d8:	0087e433          	or	s0,a5,s0
   144dc:	07f80513          	addi	a0,a6,127
   144e0:	14a05e63          	blez	a0,1463c <__mulsf3+0x2cc>
   144e4:	00747793          	andi	a5,s0,7
   144e8:	00078a63          	beqz	a5,144fc <__mulsf3+0x18c>
   144ec:	00f47793          	andi	a5,s0,15
   144f0:	00400713          	li	a4,4
   144f4:	00e78463          	beq	a5,a4,144fc <__mulsf3+0x18c>
   144f8:	00e40433          	add	s0,s0,a4
   144fc:	00441793          	slli	a5,s0,0x4
   14500:	0007da63          	bgez	a5,14514 <__mulsf3+0x1a4>
   14504:	f80007b7          	lui	a5,0xf8000
   14508:	fff78793          	addi	a5,a5,-1 # f7ffffff <__BSS_END__+0xf7fe3257>
   1450c:	00f47433          	and	s0,s0,a5
   14510:	08080513          	addi	a0,a6,128
   14514:	0fe00793          	li	a5,254
   14518:	18a7ca63          	blt	a5,a0,146ac <__mulsf3+0x33c>
   1451c:	00345793          	srli	a5,s0,0x3
   14520:	01c12083          	lw	ra,28(sp)
   14524:	01812403          	lw	s0,24(sp)
   14528:	00979793          	slli	a5,a5,0x9
   1452c:	01751513          	slli	a0,a0,0x17
   14530:	0097d793          	srli	a5,a5,0x9
   14534:	01f99993          	slli	s3,s3,0x1f
   14538:	00f56533          	or	a0,a0,a5
   1453c:	01412483          	lw	s1,20(sp)
   14540:	01012903          	lw	s2,16(sp)
   14544:	00812a03          	lw	s4,8(sp)
   14548:	00412a83          	lw	s5,4(sp)
   1454c:	01356533          	or	a0,a0,s3
   14550:	00c12983          	lw	s3,12(sp)
   14554:	02010113          	addi	sp,sp,32
   14558:	00008067          	ret
   1455c:	02048863          	beqz	s1,1458c <__mulsf3+0x21c>
   14560:	00048513          	mv	a0,s1
   14564:	19d000ef          	jal	14f00 <__clzsi2>
   14568:	ffb50793          	addi	a5,a0,-5
   1456c:	f8a00913          	li	s2,-118
   14570:	00f494b3          	sll	s1,s1,a5
   14574:	40a90933          	sub	s2,s2,a0
   14578:	e4dff06f          	j	143c4 <__mulsf3+0x54>
   1457c:	00200a13          	li	s4,2
   14580:	e40484e3          	beqz	s1,143c8 <__mulsf3+0x58>
   14584:	00300a13          	li	s4,3
   14588:	e41ff06f          	j	143c8 <__mulsf3+0x58>
   1458c:	00000913          	li	s2,0
   14590:	00100a13          	li	s4,1
   14594:	e35ff06f          	j	143c8 <__mulsf3+0x58>
   14598:	02040863          	beqz	s0,145c8 <__mulsf3+0x258>
   1459c:	00040513          	mv	a0,s0
   145a0:	161000ef          	jal	14f00 <__clzsi2>
   145a4:	ffb50793          	addi	a5,a0,-5
   145a8:	00f41433          	sll	s0,s0,a5
   145ac:	f8a00793          	li	a5,-118
   145b0:	40a787b3          	sub	a5,a5,a0
   145b4:	e45ff06f          	j	143f8 <__mulsf3+0x88>
   145b8:	00200713          	li	a4,2
   145bc:	e40400e3          	beqz	s0,143fc <__mulsf3+0x8c>
   145c0:	00300713          	li	a4,3
   145c4:	e39ff06f          	j	143fc <__mulsf3+0x8c>
   145c8:	00000793          	li	a5,0
   145cc:	00100713          	li	a4,1
   145d0:	e2dff06f          	j	143fc <__mulsf3+0x8c>
   145d4:	00f697b3          	sll	a5,a3,a5
   145d8:	5307f693          	andi	a3,a5,1328
   145dc:	04069663          	bnez	a3,14628 <__mulsf3+0x2b8>
   145e0:	2407f693          	andi	a3,a5,576
   145e4:	0a069c63          	bnez	a3,1469c <__mulsf3+0x32c>
   145e8:	0887f793          	andi	a5,a5,136
   145ec:	e40780e3          	beqz	a5,1442c <__mulsf3+0xbc>
   145f0:	000a8993          	mv	s3,s5
   145f4:	00200793          	li	a5,2
   145f8:	0af70a63          	beq	a4,a5,146ac <__mulsf3+0x33c>
   145fc:	00300793          	li	a5,3
   14600:	08f70e63          	beq	a4,a5,1469c <__mulsf3+0x32c>
   14604:	00100793          	li	a5,1
   14608:	ecf71ae3          	bne	a4,a5,144dc <__mulsf3+0x16c>
   1460c:	00000793          	li	a5,0
   14610:	00000513          	li	a0,0
   14614:	f0dff06f          	j	14520 <__mulsf3+0x1b0>
   14618:	00f00693          	li	a3,15
   1461c:	08d78063          	beq	a5,a3,1469c <__mulsf3+0x32c>
   14620:	00b00693          	li	a3,11
   14624:	fcd786e3          	beq	a5,a3,145f0 <__mulsf3+0x280>
   14628:	00048413          	mv	s0,s1
   1462c:	000a0713          	mv	a4,s4
   14630:	fc5ff06f          	j	145f4 <__mulsf3+0x284>
   14634:	00090813          	mv	a6,s2
   14638:	ea5ff06f          	j	144dc <__mulsf3+0x16c>
   1463c:	04050c63          	beqz	a0,14694 <__mulsf3+0x324>
   14640:	fe600793          	li	a5,-26
   14644:	fcf544e3          	blt	a0,a5,1460c <__mulsf3+0x29c>
   14648:	00100793          	li	a5,1
   1464c:	40a787b3          	sub	a5,a5,a0
   14650:	09e80813          	addi	a6,a6,158
   14654:	00f457b3          	srl	a5,s0,a5
   14658:	01041433          	sll	s0,s0,a6
   1465c:	00803433          	snez	s0,s0
   14660:	0087e7b3          	or	a5,a5,s0
   14664:	0077f713          	andi	a4,a5,7
   14668:	00070a63          	beqz	a4,1467c <__mulsf3+0x30c>
   1466c:	00f7f713          	andi	a4,a5,15
   14670:	00400693          	li	a3,4
   14674:	00d70463          	beq	a4,a3,1467c <__mulsf3+0x30c>
   14678:	00d787b3          	add	a5,a5,a3
   1467c:	00579713          	slli	a4,a5,0x5
   14680:	0037d793          	srli	a5,a5,0x3
   14684:	f80756e3          	bgez	a4,14610 <__mulsf3+0x2a0>
   14688:	00000793          	li	a5,0
   1468c:	00100513          	li	a0,1
   14690:	e91ff06f          	j	14520 <__mulsf3+0x1b0>
   14694:	00100793          	li	a5,1
   14698:	fb9ff06f          	j	14650 <__mulsf3+0x2e0>
   1469c:	004007b7          	lui	a5,0x400
   146a0:	0ff00513          	li	a0,255
   146a4:	00000993          	li	s3,0
   146a8:	e79ff06f          	j	14520 <__mulsf3+0x1b0>
   146ac:	00000793          	li	a5,0
   146b0:	0ff00513          	li	a0,255
   146b4:	e6dff06f          	j	14520 <__mulsf3+0x1b0>

000146b8 <__subsf3>:
   146b8:	00800737          	lui	a4,0x800
   146bc:	fff70713          	addi	a4,a4,-1 # 7fffff <__BSS_END__+0x7e3257>
   146c0:	0175d693          	srli	a3,a1,0x17
   146c4:	00a777b3          	and	a5,a4,a0
   146c8:	0ff6f693          	zext.b	a3,a3
   146cc:	00b77733          	and	a4,a4,a1
   146d0:	ff010113          	addi	sp,sp,-16
   146d4:	00371713          	slli	a4,a4,0x3
   146d8:	f0168613          	addi	a2,a3,-255
   146dc:	00812423          	sw	s0,8(sp)
   146e0:	00912223          	sw	s1,4(sp)
   146e4:	01755413          	srli	s0,a0,0x17
   146e8:	01f55493          	srli	s1,a0,0x1f
   146ec:	00c03633          	snez	a2,a2
   146f0:	00173513          	seqz	a0,a4
   146f4:	00a66633          	or	a2,a2,a0
   146f8:	01f5d593          	srli	a1,a1,0x1f
   146fc:	0ff47413          	zext.b	s0,s0
   14700:	00c5c5b3          	xor	a1,a1,a2
   14704:	00112623          	sw	ra,12(sp)
   14708:	01212023          	sw	s2,0(sp)
   1470c:	00379793          	slli	a5,a5,0x3
   14710:	40d40633          	sub	a2,s0,a3
   14714:	1c959c63          	bne	a1,s1,148ec <__subsf3+0x234>
   14718:	08c05e63          	blez	a2,147b4 <__subsf3+0xfc>
   1471c:	0ff00513          	li	a0,255
   14720:	02069663          	bnez	a3,1474c <__subsf3+0x94>
   14724:	00070e63          	beqz	a4,14740 <__subsf3+0x88>
   14728:	fff60593          	addi	a1,a2,-1 # 3ffffff <__BSS_END__+0x3fe3257>
   1472c:	00059863          	bnez	a1,1473c <__subsf3+0x84>
   14730:	00e787b3          	add	a5,a5,a4
   14734:	00100413          	li	s0,1
   14738:	04c0006f          	j	14784 <__subsf3+0xcc>
   1473c:	02a61063          	bne	a2,a0,1475c <__subsf3+0xa4>
   14740:	00060413          	mv	s0,a2
   14744:	00078713          	mv	a4,a5
   14748:	3880006f          	j	14ad0 <__subsf3+0x418>
   1474c:	fea40ce3          	beq	s0,a0,14744 <__subsf3+0x8c>
   14750:	040006b7          	lui	a3,0x4000
   14754:	00d76733          	or	a4,a4,a3
   14758:	00060593          	mv	a1,a2
   1475c:	01b00613          	li	a2,27
   14760:	00100693          	li	a3,1
   14764:	00b64e63          	blt	a2,a1,14780 <__subsf3+0xc8>
   14768:	02000693          	li	a3,32
   1476c:	40b686b3          	sub	a3,a3,a1
   14770:	00b75633          	srl	a2,a4,a1
   14774:	00d71733          	sll	a4,a4,a3
   14778:	00e03733          	snez	a4,a4
   1477c:	00e666b3          	or	a3,a2,a4
   14780:	00d787b3          	add	a5,a5,a3
   14784:	00579713          	slli	a4,a5,0x5
   14788:	12075263          	bgez	a4,148ac <__subsf3+0x1f4>
   1478c:	00140413          	addi	s0,s0,1
   14790:	0ff00713          	li	a4,255
   14794:	36e40063          	beq	s0,a4,14af4 <__subsf3+0x43c>
   14798:	7e0006b7          	lui	a3,0x7e000
   1479c:	0017d713          	srli	a4,a5,0x1
   147a0:	fff68693          	addi	a3,a3,-1 # 7dffffff <__BSS_END__+0x7dfe3257>
   147a4:	00d77733          	and	a4,a4,a3
   147a8:	0017f793          	andi	a5,a5,1
   147ac:	00f767b3          	or	a5,a4,a5
   147b0:	0fc0006f          	j	148ac <__subsf3+0x1f4>
   147b4:	06060463          	beqz	a2,1481c <__subsf3+0x164>
   147b8:	40868633          	sub	a2,a3,s0
   147bc:	0ff00513          	li	a0,255
   147c0:	00041e63          	bnez	s0,147dc <__subsf3+0x124>
   147c4:	30078463          	beqz	a5,14acc <__subsf3+0x414>
   147c8:	fff60593          	addi	a1,a2,-1
   147cc:	f60582e3          	beqz	a1,14730 <__subsf3+0x78>
   147d0:	00a61e63          	bne	a2,a0,147ec <__subsf3+0x134>
   147d4:	0ff00413          	li	s0,255
   147d8:	2f80006f          	j	14ad0 <__subsf3+0x418>
   147dc:	fea68ce3          	beq	a3,a0,147d4 <__subsf3+0x11c>
   147e0:	040005b7          	lui	a1,0x4000
   147e4:	00b7e7b3          	or	a5,a5,a1
   147e8:	00060593          	mv	a1,a2
   147ec:	01b00513          	li	a0,27
   147f0:	00100613          	li	a2,1
   147f4:	00b54e63          	blt	a0,a1,14810 <__subsf3+0x158>
   147f8:	02000613          	li	a2,32
   147fc:	40b60633          	sub	a2,a2,a1
   14800:	00b7d533          	srl	a0,a5,a1
   14804:	00c797b3          	sll	a5,a5,a2
   14808:	00f037b3          	snez	a5,a5
   1480c:	00f56633          	or	a2,a0,a5
   14810:	00e607b3          	add	a5,a2,a4
   14814:	00068413          	mv	s0,a3
   14818:	f6dff06f          	j	14784 <__subsf3+0xcc>
   1481c:	00140693          	addi	a3,s0,1
   14820:	0fe6f613          	andi	a2,a3,254
   14824:	06061a63          	bnez	a2,14898 <__subsf3+0x1e0>
   14828:	06041063          	bnez	s0,14888 <__subsf3+0x1d0>
   1482c:	28078c63          	beqz	a5,14ac4 <__subsf3+0x40c>
   14830:	08070a63          	beqz	a4,148c4 <__subsf3+0x20c>
   14834:	00f70733          	add	a4,a4,a5
   14838:	00571793          	slli	a5,a4,0x5
   1483c:	2807da63          	bgez	a5,14ad0 <__subsf3+0x418>
   14840:	1f8007b7          	lui	a5,0x1f800
   14844:	00375713          	srli	a4,a4,0x3
   14848:	fff78793          	addi	a5,a5,-1 # 1f7fffff <__BSS_END__+0x1f7e3257>
   1484c:	00f777b3          	and	a5,a4,a5
   14850:	00100413          	li	s0,1
   14854:	0ff47413          	zext.b	s0,s0
   14858:	00979793          	slli	a5,a5,0x9
   1485c:	01741413          	slli	s0,s0,0x17
   14860:	0097d793          	srli	a5,a5,0x9
   14864:	00f46433          	or	s0,s0,a5
   14868:	01f49513          	slli	a0,s1,0x1f
   1486c:	00c12083          	lw	ra,12(sp)
   14870:	00a46533          	or	a0,s0,a0
   14874:	00812403          	lw	s0,8(sp)
   14878:	00412483          	lw	s1,4(sp)
   1487c:	00012903          	lw	s2,0(sp)
   14880:	01010113          	addi	sp,sp,16
   14884:	00008067          	ret
   14888:	f40786e3          	beqz	a5,147d4 <__subsf3+0x11c>
   1488c:	1a071e63          	bnez	a4,14a48 <__subsf3+0x390>
   14890:	00078713          	mv	a4,a5
   14894:	f41ff06f          	j	147d4 <__subsf3+0x11c>
   14898:	0ff00613          	li	a2,255
   1489c:	24c68a63          	beq	a3,a2,14af0 <__subsf3+0x438>
   148a0:	00e78733          	add	a4,a5,a4
   148a4:	00175793          	srli	a5,a4,0x1
   148a8:	00068413          	mv	s0,a3
   148ac:	0077f713          	andi	a4,a5,7
   148b0:	00070a63          	beqz	a4,148c4 <__subsf3+0x20c>
   148b4:	00f7f713          	andi	a4,a5,15
   148b8:	00400693          	li	a3,4
   148bc:	00d70463          	beq	a4,a3,148c4 <__subsf3+0x20c>
   148c0:	00d787b3          	add	a5,a5,a3
   148c4:	00579713          	slli	a4,a5,0x5
   148c8:	e6075ee3          	bgez	a4,14744 <__subsf3+0x8c>
   148cc:	00140413          	addi	s0,s0,1
   148d0:	0ff00713          	li	a4,255
   148d4:	22e40063          	beq	s0,a4,14af4 <__subsf3+0x43c>
   148d8:	1f800737          	lui	a4,0x1f800
   148dc:	0037d793          	srli	a5,a5,0x3
   148e0:	fff70713          	addi	a4,a4,-1 # 1f7fffff <__BSS_END__+0x1f7e3257>
   148e4:	00e7f7b3          	and	a5,a5,a4
   148e8:	f6dff06f          	j	14854 <__subsf3+0x19c>
   148ec:	08c05063          	blez	a2,1496c <__subsf3+0x2b4>
   148f0:	06069263          	bnez	a3,14954 <__subsf3+0x29c>
   148f4:	e40706e3          	beqz	a4,14740 <__subsf3+0x88>
   148f8:	fff60593          	addi	a1,a2,-1
   148fc:	00059863          	bnez	a1,1490c <__subsf3+0x254>
   14900:	40e787b3          	sub	a5,a5,a4
   14904:	00100413          	li	s0,1
   14908:	0340006f          	j	1493c <__subsf3+0x284>
   1490c:	0ff00693          	li	a3,255
   14910:	e2d608e3          	beq	a2,a3,14740 <__subsf3+0x88>
   14914:	01b00613          	li	a2,27
   14918:	00100693          	li	a3,1
   1491c:	00b64e63          	blt	a2,a1,14938 <__subsf3+0x280>
   14920:	02000693          	li	a3,32
   14924:	40b686b3          	sub	a3,a3,a1
   14928:	00b75633          	srl	a2,a4,a1
   1492c:	00d71733          	sll	a4,a4,a3
   14930:	00e03733          	snez	a4,a4
   14934:	00e666b3          	or	a3,a2,a4
   14938:	40d787b3          	sub	a5,a5,a3
   1493c:	00579713          	slli	a4,a5,0x5
   14940:	f60756e3          	bgez	a4,148ac <__subsf3+0x1f4>
   14944:	04000937          	lui	s2,0x4000
   14948:	fff90913          	addi	s2,s2,-1 # 3ffffff <__BSS_END__+0x3fe3257>
   1494c:	0127f933          	and	s2,a5,s2
   14950:	11c0006f          	j	14a6c <__subsf3+0x3b4>
   14954:	0ff00693          	li	a3,255
   14958:	ded406e3          	beq	s0,a3,14744 <__subsf3+0x8c>
   1495c:	040006b7          	lui	a3,0x4000
   14960:	00d76733          	or	a4,a4,a3
   14964:	00060593          	mv	a1,a2
   14968:	fadff06f          	j	14914 <__subsf3+0x25c>
   1496c:	06060e63          	beqz	a2,149e8 <__subsf3+0x330>
   14970:	40868633          	sub	a2,a3,s0
   14974:	02041663          	bnez	s0,149a0 <__subsf3+0x2e8>
   14978:	02078063          	beqz	a5,14998 <__subsf3+0x2e0>
   1497c:	fff60513          	addi	a0,a2,-1
   14980:	00051863          	bnez	a0,14990 <__subsf3+0x2d8>
   14984:	40f707b3          	sub	a5,a4,a5
   14988:	00058493          	mv	s1,a1
   1498c:	f79ff06f          	j	14904 <__subsf3+0x24c>
   14990:	0ff00813          	li	a6,255
   14994:	03061063          	bne	a2,a6,149b4 <__subsf3+0x2fc>
   14998:	00060413          	mv	s0,a2
   1499c:	0680006f          	j	14a04 <__subsf3+0x34c>
   149a0:	0ff00513          	li	a0,255
   149a4:	14a68263          	beq	a3,a0,14ae8 <__subsf3+0x430>
   149a8:	04000537          	lui	a0,0x4000
   149ac:	00a7e7b3          	or	a5,a5,a0
   149b0:	00060513          	mv	a0,a2
   149b4:	01b00813          	li	a6,27
   149b8:	00100613          	li	a2,1
   149bc:	00a84e63          	blt	a6,a0,149d8 <__subsf3+0x320>
   149c0:	02000613          	li	a2,32
   149c4:	40a60633          	sub	a2,a2,a0
   149c8:	00a7d833          	srl	a6,a5,a0
   149cc:	00c797b3          	sll	a5,a5,a2
   149d0:	00f037b3          	snez	a5,a5
   149d4:	00f86633          	or	a2,a6,a5
   149d8:	40c707b3          	sub	a5,a4,a2
   149dc:	00068413          	mv	s0,a3
   149e0:	00058493          	mv	s1,a1
   149e4:	f59ff06f          	j	1493c <__subsf3+0x284>
   149e8:	00140693          	addi	a3,s0,1
   149ec:	0fe6f693          	andi	a3,a3,254
   149f0:	06069463          	bnez	a3,14a58 <__subsf3+0x3a0>
   149f4:	04041863          	bnez	s0,14a44 <__subsf3+0x38c>
   149f8:	00079a63          	bnez	a5,14a0c <__subsf3+0x354>
   149fc:	00000493          	li	s1,0
   14a00:	e4070ae3          	beqz	a4,14854 <__subsf3+0x19c>
   14a04:	00058493          	mv	s1,a1
   14a08:	0c80006f          	j	14ad0 <__subsf3+0x418>
   14a0c:	ea070ce3          	beqz	a4,148c4 <__subsf3+0x20c>
   14a10:	40e786b3          	sub	a3,a5,a4
   14a14:	00569613          	slli	a2,a3,0x5
   14a18:	00065c63          	bgez	a2,14a30 <__subsf3+0x378>
   14a1c:	40f707b3          	sub	a5,a4,a5
   14a20:	00058493          	mv	s1,a1
   14a24:	00000413          	li	s0,0
   14a28:	e20786e3          	beqz	a5,14854 <__subsf3+0x19c>
   14a2c:	e81ff06f          	j	148ac <__subsf3+0x1f4>
   14a30:	00068713          	mv	a4,a3
   14a34:	08069e63          	bnez	a3,14ad0 <__subsf3+0x418>
   14a38:	00000793          	li	a5,0
   14a3c:	00000493          	li	s1,0
   14a40:	e15ff06f          	j	14854 <__subsf3+0x19c>
   14a44:	e40794e3          	bnez	a5,1488c <__subsf3+0x1d4>
   14a48:	00000493          	li	s1,0
   14a4c:	0ff00413          	li	s0,255
   14a50:	004007b7          	lui	a5,0x400
   14a54:	e01ff06f          	j	14854 <__subsf3+0x19c>
   14a58:	40e78933          	sub	s2,a5,a4
   14a5c:	00591693          	slli	a3,s2,0x5
   14a60:	0406d263          	bgez	a3,14aa4 <__subsf3+0x3ec>
   14a64:	40f70933          	sub	s2,a4,a5
   14a68:	00058493          	mv	s1,a1
   14a6c:	00090513          	mv	a0,s2
   14a70:	490000ef          	jal	14f00 <__clzsi2>
   14a74:	ffb50513          	addi	a0,a0,-5 # 3fffffb <__BSS_END__+0x3fe3253>
   14a78:	00a91933          	sll	s2,s2,a0
   14a7c:	02854a63          	blt	a0,s0,14ab0 <__subsf3+0x3f8>
   14a80:	40850533          	sub	a0,a0,s0
   14a84:	00150513          	addi	a0,a0,1
   14a88:	02000713          	li	a4,32
   14a8c:	40a70733          	sub	a4,a4,a0
   14a90:	00a957b3          	srl	a5,s2,a0
   14a94:	00e91933          	sll	s2,s2,a4
   14a98:	01203933          	snez	s2,s2
   14a9c:	0127e7b3          	or	a5,a5,s2
   14aa0:	f85ff06f          	j	14a24 <__subsf3+0x36c>
   14aa4:	fc0914e3          	bnez	s2,14a6c <__subsf3+0x3b4>
   14aa8:	00000413          	li	s0,0
   14aac:	f8dff06f          	j	14a38 <__subsf3+0x380>
   14ab0:	fc0007b7          	lui	a5,0xfc000
   14ab4:	fff78793          	addi	a5,a5,-1 # fbffffff <__BSS_END__+0xfbfe3257>
   14ab8:	40a40433          	sub	s0,s0,a0
   14abc:	00f977b3          	and	a5,s2,a5
   14ac0:	dedff06f          	j	148ac <__subsf3+0x1f4>
   14ac4:	00070793          	mv	a5,a4
   14ac8:	f5dff06f          	j	14a24 <__subsf3+0x36c>
   14acc:	00060413          	mv	s0,a2
   14ad0:	00375793          	srli	a5,a4,0x3
   14ad4:	0ff00713          	li	a4,255
   14ad8:	d6e41ee3          	bne	s0,a4,14854 <__subsf3+0x19c>
   14adc:	d6078ce3          	beqz	a5,14854 <__subsf3+0x19c>
   14ae0:	004007b7          	lui	a5,0x400
   14ae4:	f59ff06f          	j	14a3c <__subsf3+0x384>
   14ae8:	00068413          	mv	s0,a3
   14aec:	f19ff06f          	j	14a04 <__subsf3+0x34c>
   14af0:	00068413          	mv	s0,a3
   14af4:	00000793          	li	a5,0
   14af8:	d5dff06f          	j	14854 <__subsf3+0x19c>

00014afc <__unordsf2>:
   14afc:	008007b7          	lui	a5,0x800
   14b00:	fff78793          	addi	a5,a5,-1 # 7fffff <__BSS_END__+0x7e3257>
   14b04:	00a7f733          	and	a4,a5,a0
   14b08:	01755513          	srli	a0,a0,0x17
   14b0c:	0ff57513          	zext.b	a0,a0
   14b10:	f0150513          	addi	a0,a0,-255
   14b14:	00b7f7b3          	and	a5,a5,a1
   14b18:	00051663          	bnez	a0,14b24 <__unordsf2+0x28>
   14b1c:	00100513          	li	a0,1
   14b20:	00071e63          	bnez	a4,14b3c <__unordsf2+0x40>
   14b24:	0175d593          	srli	a1,a1,0x17
   14b28:	0ff5f593          	zext.b	a1,a1
   14b2c:	f0158593          	addi	a1,a1,-255 # 3ffff01 <__BSS_END__+0x3fe3159>
   14b30:	00f037b3          	snez	a5,a5
   14b34:	0015b593          	seqz	a1,a1
   14b38:	00b7f533          	and	a0,a5,a1
   14b3c:	00008067          	ret

00014b40 <__fixsfsi>:
   14b40:	00800637          	lui	a2,0x800
   14b44:	01755713          	srli	a4,a0,0x17
   14b48:	fff60793          	addi	a5,a2,-1 # 7fffff <__BSS_END__+0x7e3257>
   14b4c:	0ff77713          	zext.b	a4,a4
   14b50:	07e00593          	li	a1,126
   14b54:	00a7f7b3          	and	a5,a5,a0
   14b58:	01f55693          	srli	a3,a0,0x1f
   14b5c:	04e5d663          	bge	a1,a4,14ba8 <__fixsfsi+0x68>
   14b60:	09d00593          	li	a1,157
   14b64:	00e5da63          	bge	a1,a4,14b78 <__fixsfsi+0x38>
   14b68:	80000537          	lui	a0,0x80000
   14b6c:	fff50513          	addi	a0,a0,-1 # 7fffffff <__BSS_END__+0x7ffe3257>
   14b70:	00a68533          	add	a0,a3,a0
   14b74:	00008067          	ret
   14b78:	00c7e533          	or	a0,a5,a2
   14b7c:	09500793          	li	a5,149
   14b80:	00e7dc63          	bge	a5,a4,14b98 <__fixsfsi+0x58>
   14b84:	f6a70713          	addi	a4,a4,-150
   14b88:	00e51533          	sll	a0,a0,a4
   14b8c:	02068063          	beqz	a3,14bac <__fixsfsi+0x6c>
   14b90:	40a00533          	neg	a0,a0
   14b94:	00008067          	ret
   14b98:	09600793          	li	a5,150
   14b9c:	40e787b3          	sub	a5,a5,a4
   14ba0:	00f55533          	srl	a0,a0,a5
   14ba4:	fe9ff06f          	j	14b8c <__fixsfsi+0x4c>
   14ba8:	00000513          	li	a0,0
   14bac:	00008067          	ret

00014bb0 <__fixunssfsi>:
   14bb0:	008005b7          	lui	a1,0x800
   14bb4:	01755793          	srli	a5,a0,0x17
   14bb8:	fff58693          	addi	a3,a1,-1 # 7fffff <__BSS_END__+0x7e3257>
   14bbc:	0ff7f793          	zext.b	a5,a5
   14bc0:	07e00613          	li	a2,126
   14bc4:	00a6f6b3          	and	a3,a3,a0
   14bc8:	01f55713          	srli	a4,a0,0x1f
   14bcc:	04f65263          	bge	a2,a5,14c10 <__fixunssfsi+0x60>
   14bd0:	09f00613          	li	a2,159
   14bd4:	40e60633          	sub	a2,a2,a4
   14bd8:	fff70513          	addi	a0,a4,-1
   14bdc:	02c7dc63          	bge	a5,a2,14c14 <__fixunssfsi+0x64>
   14be0:	00000513          	li	a0,0
   14be4:	02071863          	bnez	a4,14c14 <__fixunssfsi+0x64>
   14be8:	09500713          	li	a4,149
   14bec:	00b6e533          	or	a0,a3,a1
   14bf0:	00f75863          	bge	a4,a5,14c00 <__fixunssfsi+0x50>
   14bf4:	f6a78793          	addi	a5,a5,-150
   14bf8:	00f51533          	sll	a0,a0,a5
   14bfc:	00008067          	ret
   14c00:	09600713          	li	a4,150
   14c04:	40f707b3          	sub	a5,a4,a5
   14c08:	00f55533          	srl	a0,a0,a5
   14c0c:	00008067          	ret
   14c10:	00000513          	li	a0,0
   14c14:	00008067          	ret

00014c18 <__floatsisf>:
   14c18:	ff010113          	addi	sp,sp,-16
   14c1c:	00112623          	sw	ra,12(sp)
   14c20:	00812423          	sw	s0,8(sp)
   14c24:	00912223          	sw	s1,4(sp)
   14c28:	0e050463          	beqz	a0,14d10 <__floatsisf+0xf8>
   14c2c:	41f55793          	srai	a5,a0,0x1f
   14c30:	00a7c433          	xor	s0,a5,a0
   14c34:	40f40433          	sub	s0,s0,a5
   14c38:	01f55493          	srli	s1,a0,0x1f
   14c3c:	00040513          	mv	a0,s0
   14c40:	2c0000ef          	jal	14f00 <__clzsi2>
   14c44:	09e00793          	li	a5,158
   14c48:	00050693          	mv	a3,a0
   14c4c:	40a78533          	sub	a0,a5,a0
   14c50:	00700793          	li	a5,7
   14c54:	04d7d063          	bge	a5,a3,14c94 <__floatsisf+0x7c>
   14c58:	00800793          	li	a5,8
   14c5c:	0cf68063          	beq	a3,a5,14d1c <__floatsisf+0x104>
   14c60:	ff868693          	addi	a3,a3,-8 # 3fffff8 <__BSS_END__+0x3fe3250>
   14c64:	00d41433          	sll	s0,s0,a3
   14c68:	00941413          	slli	s0,s0,0x9
   14c6c:	00945413          	srli	s0,s0,0x9
   14c70:	01751513          	slli	a0,a0,0x17
   14c74:	00c12083          	lw	ra,12(sp)
   14c78:	00856533          	or	a0,a0,s0
   14c7c:	00812403          	lw	s0,8(sp)
   14c80:	01f49493          	slli	s1,s1,0x1f
   14c84:	00956533          	or	a0,a0,s1
   14c88:	00412483          	lw	s1,4(sp)
   14c8c:	01010113          	addi	sp,sp,16
   14c90:	00008067          	ret
   14c94:	00400793          	li	a5,4
   14c98:	00500713          	li	a4,5
   14c9c:	06d7c263          	blt	a5,a3,14d00 <__floatsisf+0xe8>
   14ca0:	01b68793          	addi	a5,a3,27
   14ca4:	00f417b3          	sll	a5,s0,a5
   14ca8:	40d70733          	sub	a4,a4,a3
   14cac:	00f037b3          	snez	a5,a5
   14cb0:	00e45433          	srl	s0,s0,a4
   14cb4:	0087e433          	or	s0,a5,s0
   14cb8:	fc000737          	lui	a4,0xfc000
   14cbc:	fff70713          	addi	a4,a4,-1 # fbffffff <__BSS_END__+0xfbfe3257>
   14cc0:	00747793          	andi	a5,s0,7
   14cc4:	00e47733          	and	a4,s0,a4
   14cc8:	02078863          	beqz	a5,14cf8 <__floatsisf+0xe0>
   14ccc:	00f47413          	andi	s0,s0,15
   14cd0:	00400793          	li	a5,4
   14cd4:	02f40263          	beq	s0,a5,14cf8 <__floatsisf+0xe0>
   14cd8:	00f70733          	add	a4,a4,a5
   14cdc:	00571793          	slli	a5,a4,0x5
   14ce0:	0007dc63          	bgez	a5,14cf8 <__floatsisf+0xe0>
   14ce4:	fc0007b7          	lui	a5,0xfc000
   14ce8:	fff78793          	addi	a5,a5,-1 # fbffffff <__BSS_END__+0xfbfe3257>
   14cec:	00f77733          	and	a4,a4,a5
   14cf0:	09f00793          	li	a5,159
   14cf4:	40d78533          	sub	a0,a5,a3
   14cf8:	00375413          	srli	s0,a4,0x3
   14cfc:	f6dff06f          	j	14c68 <__floatsisf+0x50>
   14d00:	fae68ce3          	beq	a3,a4,14cb8 <__floatsisf+0xa0>
   14d04:	ffb68793          	addi	a5,a3,-5
   14d08:	00f41433          	sll	s0,s0,a5
   14d0c:	fadff06f          	j	14cb8 <__floatsisf+0xa0>
   14d10:	00000493          	li	s1,0
   14d14:	00000413          	li	s0,0
   14d18:	f51ff06f          	j	14c68 <__floatsisf+0x50>
   14d1c:	09600513          	li	a0,150
   14d20:	f49ff06f          	j	14c68 <__floatsisf+0x50>

00014d24 <__mulsi3>:
   14d24:	00050613          	mv	a2,a0
   14d28:	00000513          	li	a0,0
   14d2c:	0015f693          	andi	a3,a1,1
   14d30:	00068463          	beqz	a3,14d38 <__mulsi3+0x14>
   14d34:	00c50533          	add	a0,a0,a2
   14d38:	0015d593          	srli	a1,a1,0x1
   14d3c:	00161613          	slli	a2,a2,0x1
   14d40:	fe0596e3          	bnez	a1,14d2c <__mulsi3+0x8>
   14d44:	00008067          	ret

00014d48 <__muldi3>:
   14d48:	ff010113          	addi	sp,sp,-16
   14d4c:	00068313          	mv	t1,a3
   14d50:	00112623          	sw	ra,12(sp)
   14d54:	00050e13          	mv	t3,a0
   14d58:	00050693          	mv	a3,a0
   14d5c:	00060893          	mv	a7,a2
   14d60:	00000713          	li	a4,0
   14d64:	00000793          	li	a5,0
   14d68:	00000813          	li	a6,0
   14d6c:	0018fe93          	andi	t4,a7,1
   14d70:	00171513          	slli	a0,a4,0x1
   14d74:	000e8a63          	beqz	t4,14d88 <__muldi3+0x40>
   14d78:	01068833          	add	a6,a3,a6
   14d7c:	00e787b3          	add	a5,a5,a4
   14d80:	00d83733          	sltu	a4,a6,a3
   14d84:	00f707b3          	add	a5,a4,a5
   14d88:	01f6d713          	srli	a4,a3,0x1f
   14d8c:	0018d893          	srli	a7,a7,0x1
   14d90:	00e56733          	or	a4,a0,a4
   14d94:	00169693          	slli	a3,a3,0x1
   14d98:	fc089ae3          	bnez	a7,14d6c <__muldi3+0x24>
   14d9c:	00058863          	beqz	a1,14dac <__muldi3+0x64>
   14da0:	00060513          	mv	a0,a2
   14da4:	f81ff0ef          	jal	14d24 <__mulsi3>
   14da8:	00a787b3          	add	a5,a5,a0
   14dac:	00030a63          	beqz	t1,14dc0 <__muldi3+0x78>
   14db0:	000e0513          	mv	a0,t3
   14db4:	00030593          	mv	a1,t1
   14db8:	f6dff0ef          	jal	14d24 <__mulsi3>
   14dbc:	00f507b3          	add	a5,a0,a5
   14dc0:	00c12083          	lw	ra,12(sp)
   14dc4:	00080513          	mv	a0,a6
   14dc8:	00078593          	mv	a1,a5
   14dcc:	01010113          	addi	sp,sp,16
   14dd0:	00008067          	ret

00014dd4 <__divsi3>:
   14dd4:	06054063          	bltz	a0,14e34 <__umodsi3+0x10>
   14dd8:	0605c663          	bltz	a1,14e44 <__umodsi3+0x20>

00014ddc <__hidden___udivsi3>:
   14ddc:	00058613          	mv	a2,a1
   14de0:	00050593          	mv	a1,a0
   14de4:	fff00513          	li	a0,-1
   14de8:	02060c63          	beqz	a2,14e20 <__hidden___udivsi3+0x44>
   14dec:	00100693          	li	a3,1
   14df0:	00b67a63          	bgeu	a2,a1,14e04 <__hidden___udivsi3+0x28>
   14df4:	00c05863          	blez	a2,14e04 <__hidden___udivsi3+0x28>
   14df8:	00161613          	slli	a2,a2,0x1
   14dfc:	00169693          	slli	a3,a3,0x1
   14e00:	feb66ae3          	bltu	a2,a1,14df4 <__hidden___udivsi3+0x18>
   14e04:	00000513          	li	a0,0
   14e08:	00c5e663          	bltu	a1,a2,14e14 <__hidden___udivsi3+0x38>
   14e0c:	40c585b3          	sub	a1,a1,a2
   14e10:	00d56533          	or	a0,a0,a3
   14e14:	0016d693          	srli	a3,a3,0x1
   14e18:	00165613          	srli	a2,a2,0x1
   14e1c:	fe0696e3          	bnez	a3,14e08 <__hidden___udivsi3+0x2c>
   14e20:	00008067          	ret

00014e24 <__umodsi3>:
   14e24:	00008293          	mv	t0,ra
   14e28:	fb5ff0ef          	jal	14ddc <__hidden___udivsi3>
   14e2c:	00058513          	mv	a0,a1
   14e30:	00028067          	jr	t0
   14e34:	40a00533          	neg	a0,a0
   14e38:	00b04863          	bgtz	a1,14e48 <__umodsi3+0x24>
   14e3c:	40b005b3          	neg	a1,a1
   14e40:	f9dff06f          	j	14ddc <__hidden___udivsi3>
   14e44:	40b005b3          	neg	a1,a1
   14e48:	00008293          	mv	t0,ra
   14e4c:	f91ff0ef          	jal	14ddc <__hidden___udivsi3>
   14e50:	40a00533          	neg	a0,a0
   14e54:	00028067          	jr	t0

00014e58 <__modsi3>:
   14e58:	00008293          	mv	t0,ra
   14e5c:	0005ca63          	bltz	a1,14e70 <__modsi3+0x18>
   14e60:	00054c63          	bltz	a0,14e78 <__modsi3+0x20>
   14e64:	f79ff0ef          	jal	14ddc <__hidden___udivsi3>
   14e68:	00058513          	mv	a0,a1
   14e6c:	00028067          	jr	t0
   14e70:	40b005b3          	neg	a1,a1
   14e74:	fe0558e3          	bgez	a0,14e64 <__modsi3+0xc>
   14e78:	40a00533          	neg	a0,a0
   14e7c:	f61ff0ef          	jal	14ddc <__hidden___udivsi3>
   14e80:	40b00533          	neg	a0,a1
   14e84:	00028067          	jr	t0

00014e88 <__lshrdi3>:
   14e88:	00060e63          	beqz	a2,14ea4 <__lshrdi3+0x1c>
   14e8c:	01f00793          	li	a5,31
   14e90:	00c7dc63          	bge	a5,a2,14ea8 <__lshrdi3+0x20>
   14e94:	fe060613          	addi	a2,a2,-32
   14e98:	00c5d533          	srl	a0,a1,a2
   14e9c:	00000713          	li	a4,0
   14ea0:	00070593          	mv	a1,a4
   14ea4:	00008067          	ret
   14ea8:	02000793          	li	a5,32
   14eac:	40c787b3          	sub	a5,a5,a2
   14eb0:	00c5d733          	srl	a4,a1,a2
   14eb4:	00c55533          	srl	a0,a0,a2
   14eb8:	00f595b3          	sll	a1,a1,a5
   14ebc:	00a5e533          	or	a0,a1,a0
   14ec0:	fe1ff06f          	j	14ea0 <__lshrdi3+0x18>

00014ec4 <__ashldi3>:
   14ec4:	00060e63          	beqz	a2,14ee0 <__ashldi3+0x1c>
   14ec8:	01f00793          	li	a5,31
   14ecc:	00c7dc63          	bge	a5,a2,14ee4 <__ashldi3+0x20>
   14ed0:	fe060613          	addi	a2,a2,-32
   14ed4:	00c515b3          	sll	a1,a0,a2
   14ed8:	00000713          	li	a4,0
   14edc:	00070513          	mv	a0,a4
   14ee0:	00008067          	ret
   14ee4:	02000793          	li	a5,32
   14ee8:	40c787b3          	sub	a5,a5,a2
   14eec:	00c51733          	sll	a4,a0,a2
   14ef0:	00c595b3          	sll	a1,a1,a2
   14ef4:	00f55533          	srl	a0,a0,a5
   14ef8:	00b565b3          	or	a1,a0,a1
   14efc:	fe1ff06f          	j	14edc <__ashldi3+0x18>

00014f00 <__clzsi2>:
   14f00:	000107b7          	lui	a5,0x10
   14f04:	02f57a63          	bgeu	a0,a5,14f38 <__clzsi2+0x38>
   14f08:	10053793          	sltiu	a5,a0,256
   14f0c:	0017b793          	seqz	a5,a5
   14f10:	00379793          	slli	a5,a5,0x3
   14f14:	0001b737          	lui	a4,0x1b
   14f18:	00f55533          	srl	a0,a0,a5
   14f1c:	aec70713          	addi	a4,a4,-1300 # 1aaec <__clz_tab>
   14f20:	00a70733          	add	a4,a4,a0
   14f24:	00074503          	lbu	a0,0(a4)
   14f28:	02000693          	li	a3,32
   14f2c:	40f686b3          	sub	a3,a3,a5
   14f30:	40a68533          	sub	a0,a3,a0
   14f34:	00008067          	ret
   14f38:	01000737          	lui	a4,0x1000
   14f3c:	01800793          	li	a5,24
   14f40:	fce57ae3          	bgeu	a0,a4,14f14 <__clzsi2+0x14>
   14f44:	01000793          	li	a5,16
   14f48:	fcdff06f          	j	14f14 <__clzsi2+0x14>

00014f4c <abort>:
   14f4c:	ff010113          	addi	sp,sp,-16
   14f50:	00600513          	li	a0,6
   14f54:	00112623          	sw	ra,12(sp)
   14f58:	700020ef          	jal	17658 <raise>
   14f5c:	00100513          	li	a0,1
   14f60:	0d5050ef          	jal	1a834 <_exit>

00014f64 <__assert_func>:
   14f64:	f5c1a783          	lw	a5,-164(gp) # 1ca4c <_impure_ptr>
   14f68:	ff010113          	addi	sp,sp,-16
   14f6c:	00060813          	mv	a6,a2
   14f70:	00112623          	sw	ra,12(sp)
   14f74:	00050313          	mv	t1,a0
   14f78:	00058713          	mv	a4,a1
   14f7c:	00c7a503          	lw	a0,12(a5) # 1000c <exit-0xa8>
   14f80:	00068613          	mv	a2,a3
   14f84:	02080063          	beqz	a6,14fa4 <__assert_func+0x40>
   14f88:	0001b7b7          	lui	a5,0x1b
   14f8c:	9f478793          	addi	a5,a5,-1548 # 1a9f4 <_exit+0x1c0>
   14f90:	0001b5b7          	lui	a1,0x1b
   14f94:	00030693          	mv	a3,t1
   14f98:	a0458593          	addi	a1,a1,-1532 # 1aa04 <_exit+0x1d0>
   14f9c:	064000ef          	jal	15000 <fiprintf>
   14fa0:	fadff0ef          	jal	14f4c <abort>
   14fa4:	0001b7b7          	lui	a5,0x1b
   14fa8:	a0078793          	addi	a5,a5,-1536 # 1aa00 <_exit+0x1cc>
   14fac:	00078813          	mv	a6,a5
   14fb0:	fe1ff06f          	j	14f90 <__assert_func+0x2c>

00014fb4 <__assert>:
   14fb4:	ff010113          	addi	sp,sp,-16
   14fb8:	00060693          	mv	a3,a2
   14fbc:	00000613          	li	a2,0
   14fc0:	00112623          	sw	ra,12(sp)
   14fc4:	fa1ff0ef          	jal	14f64 <__assert_func>

00014fc8 <_fiprintf_r>:
   14fc8:	fc010113          	addi	sp,sp,-64
   14fcc:	02c10313          	addi	t1,sp,44
   14fd0:	02d12623          	sw	a3,44(sp)
   14fd4:	00030693          	mv	a3,t1
   14fd8:	00112e23          	sw	ra,28(sp)
   14fdc:	02e12823          	sw	a4,48(sp)
   14fe0:	02f12a23          	sw	a5,52(sp)
   14fe4:	03012c23          	sw	a6,56(sp)
   14fe8:	03112e23          	sw	a7,60(sp)
   14fec:	00612623          	sw	t1,12(sp)
   14ff0:	060000ef          	jal	15050 <_vfiprintf_r>
   14ff4:	01c12083          	lw	ra,28(sp)
   14ff8:	04010113          	addi	sp,sp,64
   14ffc:	00008067          	ret

00015000 <fiprintf>:
   15000:	fc010113          	addi	sp,sp,-64
   15004:	00050e93          	mv	t4,a0
   15008:	f5c1a503          	lw	a0,-164(gp) # 1ca4c <_impure_ptr>
   1500c:	00058e13          	mv	t3,a1
   15010:	02810313          	addi	t1,sp,40
   15014:	02c12423          	sw	a2,40(sp)
   15018:	02d12623          	sw	a3,44(sp)
   1501c:	000e8593          	mv	a1,t4
   15020:	000e0613          	mv	a2,t3
   15024:	00030693          	mv	a3,t1
   15028:	00112e23          	sw	ra,28(sp)
   1502c:	02e12823          	sw	a4,48(sp)
   15030:	02f12a23          	sw	a5,52(sp)
   15034:	03012c23          	sw	a6,56(sp)
   15038:	03112e23          	sw	a7,60(sp)
   1503c:	00612623          	sw	t1,12(sp)
   15040:	010000ef          	jal	15050 <_vfiprintf_r>
   15044:	01c12083          	lw	ra,28(sp)
   15048:	04010113          	addi	sp,sp,64
   1504c:	00008067          	ret

00015050 <_vfiprintf_r>:
   15050:	ed010113          	addi	sp,sp,-304
   15054:	11312e23          	sw	s3,284(sp)
   15058:	11a12023          	sw	s10,256(sp)
   1505c:	12112623          	sw	ra,300(sp)
   15060:	00a12223          	sw	a0,4(sp)
   15064:	00d12623          	sw	a3,12(sp)
   15068:	00060d13          	mv	s10,a2
   1506c:	00058993          	mv	s3,a1
   15070:	00050863          	beqz	a0,15080 <_vfiprintf_r+0x30>
   15074:	03452783          	lw	a5,52(a0)
   15078:	00079463          	bnez	a5,15080 <_vfiprintf_r+0x30>
   1507c:	7ed0006f          	j	16068 <_vfiprintf_r+0x1018>
   15080:	00c99703          	lh	a4,12(s3)
   15084:	0649a783          	lw	a5,100(s3)
   15088:	00002637          	lui	a2,0x2
   1508c:	01271693          	slli	a3,a4,0x12
   15090:	0006ce63          	bltz	a3,150ac <_vfiprintf_r+0x5c>
   15094:	ffffe6b7          	lui	a3,0xffffe
   15098:	fff68693          	addi	a3,a3,-1 # ffffdfff <__BSS_END__+0xfffe1257>
   1509c:	00c76733          	or	a4,a4,a2
   150a0:	00d7f7b3          	and	a5,a5,a3
   150a4:	00e99623          	sh	a4,12(s3)
   150a8:	06f9a223          	sw	a5,100(s3)
   150ac:	01279713          	slli	a4,a5,0x12
   150b0:	00075463          	bgez	a4,150b8 <_vfiprintf_r+0x68>
   150b4:	1880106f          	j	1623c <_vfiprintf_r+0x11ec>
   150b8:	00c99783          	lh	a5,12(s3)
   150bc:	0087f713          	andi	a4,a5,8
   150c0:	28070463          	beqz	a4,15348 <_vfiprintf_r+0x2f8>
   150c4:	0109a703          	lw	a4,16(s3)
   150c8:	28070063          	beqz	a4,15348 <_vfiprintf_r+0x2f8>
   150cc:	01a7f793          	andi	a5,a5,26
   150d0:	00a00713          	li	a4,10
   150d4:	28e78a63          	beq	a5,a4,15368 <_vfiprintf_r+0x318>
   150d8:	0001b737          	lui	a4,0x1b
   150dc:	11612823          	sw	s6,272(sp)
   150e0:	11712623          	sw	s7,268(sp)
   150e4:	04c10b13          	addi	s6,sp,76
   150e8:	0001bbb7          	lui	s7,0x1b
   150ec:	bec70713          	addi	a4,a4,-1044 # 1abec <__clz_tab+0x100>
   150f0:	12912223          	sw	s1,292(sp)
   150f4:	12812423          	sw	s0,296(sp)
   150f8:	13212023          	sw	s2,288(sp)
   150fc:	11412c23          	sw	s4,280(sp)
   15100:	11512a23          	sw	s5,276(sp)
   15104:	11812423          	sw	s8,264(sp)
   15108:	11912223          	sw	s9,260(sp)
   1510c:	0fb12e23          	sw	s11,252(sp)
   15110:	04012423          	sw	zero,72(sp)
   15114:	04012223          	sw	zero,68(sp)
   15118:	05612023          	sw	s6,64(sp)
   1511c:	000b0793          	mv	a5,s6
   15120:	00e12a23          	sw	a4,20(sp)
   15124:	d58b8b93          	addi	s7,s7,-680 # 1ad58 <zeroes.0>
   15128:	00012e23          	sw	zero,28(sp)
   1512c:	02012223          	sw	zero,36(sp)
   15130:	02012023          	sw	zero,32(sp)
   15134:	00012423          	sw	zero,8(sp)
   15138:	01000493          	li	s1,16
   1513c:	000d4703          	lbu	a4,0(s10)
   15140:	000d0413          	mv	s0,s10
   15144:	fdb70693          	addi	a3,a4,-37
   15148:	06068263          	beqz	a3,151ac <_vfiprintf_r+0x15c>
   1514c:	06070063          	beqz	a4,151ac <_vfiprintf_r+0x15c>
   15150:	00040913          	mv	s2,s0
   15154:	00144703          	lbu	a4,1(s0)
   15158:	00140413          	addi	s0,s0,1
   1515c:	00070663          	beqz	a4,15168 <_vfiprintf_r+0x118>
   15160:	fdb70693          	addi	a3,a4,-37
   15164:	fe0696e3          	bnez	a3,15150 <_vfiprintf_r+0x100>
   15168:	41a40a33          	sub	s4,s0,s10
   1516c:	05a40063          	beq	s0,s10,151ac <_vfiprintf_r+0x15c>
   15170:	04812683          	lw	a3,72(sp)
   15174:	04412703          	lw	a4,68(sp)
   15178:	01a7a023          	sw	s10,0(a5)
   1517c:	014686b3          	add	a3,a3,s4
   15180:	00170713          	addi	a4,a4,1
   15184:	0147a223          	sw	s4,4(a5)
   15188:	04d12423          	sw	a3,72(sp)
   1518c:	04e12223          	sw	a4,68(sp)
   15190:	00700693          	li	a3,7
   15194:	00878793          	addi	a5,a5,8
   15198:	1ee6ce63          	blt	a3,a4,15394 <_vfiprintf_r+0x344>
   1519c:	00812703          	lw	a4,8(sp)
   151a0:	01470733          	add	a4,a4,s4
   151a4:	00e12423          	sw	a4,8(sp)
   151a8:	00194703          	lbu	a4,1(s2)
   151ac:	20070263          	beqz	a4,153b0 <_vfiprintf_r+0x360>
   151b0:	00144683          	lbu	a3,1(s0)
   151b4:	00140d13          	addi	s10,s0,1
   151b8:	02010da3          	sb	zero,59(sp)
   151bc:	fff00a93          	li	s5,-1
   151c0:	00000913          	li	s2,0
   151c4:	00000413          	li	s0,0
   151c8:	05a00a13          	li	s4,90
   151cc:	001d0d13          	addi	s10,s10,1
   151d0:	fe068713          	addi	a4,a3,-32
   151d4:	04ea6663          	bltu	s4,a4,15220 <_vfiprintf_r+0x1d0>
   151d8:	01412603          	lw	a2,20(sp)
   151dc:	00271713          	slli	a4,a4,0x2
   151e0:	00c70733          	add	a4,a4,a2
   151e4:	00072703          	lw	a4,0(a4)
   151e8:	00070067          	jr	a4
   151ec:	fd068613          	addi	a2,a3,-48
   151f0:	00000913          	li	s2,0
   151f4:	00900593          	li	a1,9
   151f8:	00291713          	slli	a4,s2,0x2
   151fc:	000d4683          	lbu	a3,0(s10)
   15200:	01270733          	add	a4,a4,s2
   15204:	00171713          	slli	a4,a4,0x1
   15208:	00e60933          	add	s2,a2,a4
   1520c:	fd068613          	addi	a2,a3,-48
   15210:	001d0d13          	addi	s10,s10,1
   15214:	fec5f2e3          	bgeu	a1,a2,151f8 <_vfiprintf_r+0x1a8>
   15218:	fe068713          	addi	a4,a3,-32
   1521c:	faea7ee3          	bgeu	s4,a4,151d8 <_vfiprintf_r+0x188>
   15220:	18068863          	beqz	a3,153b0 <_vfiprintf_r+0x360>
   15224:	00100c13          	li	s8,1
   15228:	08d10623          	sb	a3,140(sp)
   1522c:	02010da3          	sb	zero,59(sp)
   15230:	000c0a13          	mv	s4,s8
   15234:	00000a93          	li	s5,0
   15238:	08c10c93          	addi	s9,sp,140
   1523c:	04812583          	lw	a1,72(sp)
   15240:	04412603          	lw	a2,68(sp)
   15244:	08447e13          	andi	t3,s0,132
   15248:	00058693          	mv	a3,a1
   1524c:	00060713          	mv	a4,a2
   15250:	060e1e63          	bnez	t3,152cc <_vfiprintf_r+0x27c>
   15254:	41490db3          	sub	s11,s2,s4
   15258:	23b04ee3          	bgtz	s11,15c94 <_vfiprintf_r+0xc44>
   1525c:	03b14603          	lbu	a2,59(sp)
   15260:	06060a63          	beqz	a2,152d4 <_vfiprintf_r+0x284>
   15264:	00000e13          	li	t3,0
   15268:	00012c23          	sw	zero,24(sp)
   1526c:	03b10613          	addi	a2,sp,59
   15270:	00c7a023          	sw	a2,0(a5)
   15274:	00168693          	addi	a3,a3,1
   15278:	00100613          	li	a2,1
   1527c:	00170713          	addi	a4,a4,1
   15280:	00c7a223          	sw	a2,4(a5)
   15284:	04d12423          	sw	a3,72(sp)
   15288:	04e12223          	sw	a4,68(sp)
   1528c:	00700613          	li	a2,7
   15290:	00878793          	addi	a5,a5,8
   15294:	16e64ee3          	blt	a2,a4,15c10 <_vfiprintf_r+0xbc0>
   15298:	01812603          	lw	a2,24(sp)
   1529c:	02060863          	beqz	a2,152cc <_vfiprintf_r+0x27c>
   152a0:	03c10613          	addi	a2,sp,60
   152a4:	00c7a023          	sw	a2,0(a5)
   152a8:	00268693          	addi	a3,a3,2
   152ac:	00200613          	li	a2,2
   152b0:	00170713          	addi	a4,a4,1
   152b4:	00c7a223          	sw	a2,4(a5)
   152b8:	04d12423          	sw	a3,72(sp)
   152bc:	04e12223          	sw	a4,68(sp)
   152c0:	00700613          	li	a2,7
   152c4:	00878793          	addi	a5,a5,8
   152c8:	10e64ee3          	blt	a2,a4,15be4 <_vfiprintf_r+0xb94>
   152cc:	08000613          	li	a2,128
   152d0:	76ce0063          	beq	t3,a2,15a30 <_vfiprintf_r+0x9e0>
   152d4:	418a8ab3          	sub	s5,s5,s8
   152d8:	035044e3          	bgtz	s5,15b00 <_vfiprintf_r+0xab0>
   152dc:	00dc06b3          	add	a3,s8,a3
   152e0:	00170713          	addi	a4,a4,1
   152e4:	0197a023          	sw	s9,0(a5)
   152e8:	0187a223          	sw	s8,4(a5)
   152ec:	04d12423          	sw	a3,72(sp)
   152f0:	04e12223          	sw	a4,68(sp)
   152f4:	00700613          	li	a2,7
   152f8:	00878793          	addi	a5,a5,8
   152fc:	0ae648e3          	blt	a2,a4,15bac <_vfiprintf_r+0xb5c>
   15300:	00447413          	andi	s0,s0,4
   15304:	00040663          	beqz	s0,15310 <_vfiprintf_r+0x2c0>
   15308:	41490433          	sub	s0,s2,s4
   1530c:	0e804c63          	bgtz	s0,15404 <_vfiprintf_r+0x3b4>
   15310:	01495463          	bge	s2,s4,15318 <_vfiprintf_r+0x2c8>
   15314:	000a0913          	mv	s2,s4
   15318:	00812783          	lw	a5,8(sp)
   1531c:	012787b3          	add	a5,a5,s2
   15320:	00f12423          	sw	a5,8(sp)
   15324:	0a0694e3          	bnez	a3,15bcc <_vfiprintf_r+0xb7c>
   15328:	04012223          	sw	zero,68(sp)
   1532c:	000b0793          	mv	a5,s6
   15330:	e0dff06f          	j	1513c <_vfiprintf_r+0xec>
   15334:	000d4683          	lbu	a3,0(s10)
   15338:	e95ff06f          	j	151cc <_vfiprintf_r+0x17c>
   1533c:	000d4683          	lbu	a3,0(s10)
   15340:	02046413          	ori	s0,s0,32
   15344:	e89ff06f          	j	151cc <_vfiprintf_r+0x17c>
   15348:	00412503          	lw	a0,4(sp)
   1534c:	00098593          	mv	a1,s3
   15350:	5f1010ef          	jal	17140 <__swsetup_r>
   15354:	6e0514e3          	bnez	a0,1623c <_vfiprintf_r+0x11ec>
   15358:	00c99783          	lh	a5,12(s3)
   1535c:	00a00713          	li	a4,10
   15360:	01a7f793          	andi	a5,a5,26
   15364:	d6e79ae3          	bne	a5,a4,150d8 <_vfiprintf_r+0x88>
   15368:	00e99783          	lh	a5,14(s3)
   1536c:	d607c6e3          	bltz	a5,150d8 <_vfiprintf_r+0x88>
   15370:	00c12683          	lw	a3,12(sp)
   15374:	00412503          	lw	a0,4(sp)
   15378:	12c12083          	lw	ra,300(sp)
   1537c:	000d0613          	mv	a2,s10
   15380:	00098593          	mv	a1,s3
   15384:	10012d03          	lw	s10,256(sp)
   15388:	11c12983          	lw	s3,284(sp)
   1538c:	13010113          	addi	sp,sp,304
   15390:	7290006f          	j	162b8 <__sbprintf>
   15394:	00412503          	lw	a0,4(sp)
   15398:	04010613          	addi	a2,sp,64
